ARM GAS  C:\msys64\tmp\cc82fx43.s 			page 1


   1              		.cpu cortex-m3
   2              		.eabi_attribute 20, 1
   3              		.eabi_attribute 21, 1
   4              		.eabi_attribute 23, 3
   5              		.eabi_attribute 24, 1
   6              		.eabi_attribute 25, 1
   7              		.eabi_attribute 26, 1
   8              		.eabi_attribute 30, 6
   9              		.eabi_attribute 34, 1
  10              		.eabi_attribute 18, 4
  11              		.file	"stm32f10x_tim.c"
  12              		.text
  13              		.section	.text.TIM_DeInit,"ax",%progbits
  14              		.align	1
  15              		.global	TIM_DeInit
  16              		.arch armv7-m
  17              		.syntax unified
  18              		.thumb
  19              		.thumb_func
  20              		.fpu softvfp
  22              	TIM_DeInit:
  23              		@ args = 0, pretend = 0, frame = 8
  24              		@ frame_needed = 1, uses_anonymous_args = 0
  25 0000 80B5     		push	{r7, lr}
  26 0002 82B0     		sub	sp, sp, #8
  27 0004 00AF     		add	r7, sp, #0
  28 0006 7860     		str	r0, [r7, #4]
  29 0008 7B68     		ldr	r3, [r7, #4]
  30 000a 784A     		ldr	r2, .L20
  31 000c 9342     		cmp	r3, r2
  32 000e 0AD1     		bne	.L2
  33 0010 0121     		movs	r1, #1
  34 0012 4FF40060 		mov	r0, #2048
  35 0016 FFF7FEFF 		bl	RCC_APB2PeriphResetCmd
  36 001a 0021     		movs	r1, #0
  37 001c 4FF40060 		mov	r0, #2048
  38 0020 FFF7FEFF 		bl	RCC_APB2PeriphResetCmd
  39 0024 DEE0     		b	.L19
  40              	.L2:
  41 0026 7B68     		ldr	r3, [r7, #4]
  42 0028 B3F1804F 		cmp	r3, #1073741824
  43 002c 08D1     		bne	.L4
  44 002e 0121     		movs	r1, #1
  45 0030 0120     		movs	r0, #1
  46 0032 FFF7FEFF 		bl	RCC_APB1PeriphResetCmd
  47 0036 0021     		movs	r1, #0
  48 0038 0120     		movs	r0, #1
  49 003a FFF7FEFF 		bl	RCC_APB1PeriphResetCmd
  50 003e D1E0     		b	.L19
  51              	.L4:
  52 0040 7B68     		ldr	r3, [r7, #4]
  53 0042 6B4A     		ldr	r2, .L20+4
  54 0044 9342     		cmp	r3, r2
  55 0046 08D1     		bne	.L5
  56 0048 0121     		movs	r1, #1
  57 004a 0220     		movs	r0, #2
  58 004c FFF7FEFF 		bl	RCC_APB1PeriphResetCmd
ARM GAS  C:\msys64\tmp\cc82fx43.s 			page 2


  59 0050 0021     		movs	r1, #0
  60 0052 0220     		movs	r0, #2
  61 0054 FFF7FEFF 		bl	RCC_APB1PeriphResetCmd
  62 0058 C4E0     		b	.L19
  63              	.L5:
  64 005a 7B68     		ldr	r3, [r7, #4]
  65 005c 654A     		ldr	r2, .L20+8
  66 005e 9342     		cmp	r3, r2
  67 0060 08D1     		bne	.L6
  68 0062 0121     		movs	r1, #1
  69 0064 0420     		movs	r0, #4
  70 0066 FFF7FEFF 		bl	RCC_APB1PeriphResetCmd
  71 006a 0021     		movs	r1, #0
  72 006c 0420     		movs	r0, #4
  73 006e FFF7FEFF 		bl	RCC_APB1PeriphResetCmd
  74 0072 B7E0     		b	.L19
  75              	.L6:
  76 0074 7B68     		ldr	r3, [r7, #4]
  77 0076 604A     		ldr	r2, .L20+12
  78 0078 9342     		cmp	r3, r2
  79 007a 08D1     		bne	.L7
  80 007c 0121     		movs	r1, #1
  81 007e 0820     		movs	r0, #8
  82 0080 FFF7FEFF 		bl	RCC_APB1PeriphResetCmd
  83 0084 0021     		movs	r1, #0
  84 0086 0820     		movs	r0, #8
  85 0088 FFF7FEFF 		bl	RCC_APB1PeriphResetCmd
  86 008c AAE0     		b	.L19
  87              	.L7:
  88 008e 7B68     		ldr	r3, [r7, #4]
  89 0090 5A4A     		ldr	r2, .L20+16
  90 0092 9342     		cmp	r3, r2
  91 0094 08D1     		bne	.L8
  92 0096 0121     		movs	r1, #1
  93 0098 1020     		movs	r0, #16
  94 009a FFF7FEFF 		bl	RCC_APB1PeriphResetCmd
  95 009e 0021     		movs	r1, #0
  96 00a0 1020     		movs	r0, #16
  97 00a2 FFF7FEFF 		bl	RCC_APB1PeriphResetCmd
  98 00a6 9DE0     		b	.L19
  99              	.L8:
 100 00a8 7B68     		ldr	r3, [r7, #4]
 101 00aa 554A     		ldr	r2, .L20+20
 102 00ac 9342     		cmp	r3, r2
 103 00ae 08D1     		bne	.L9
 104 00b0 0121     		movs	r1, #1
 105 00b2 2020     		movs	r0, #32
 106 00b4 FFF7FEFF 		bl	RCC_APB1PeriphResetCmd
 107 00b8 0021     		movs	r1, #0
 108 00ba 2020     		movs	r0, #32
 109 00bc FFF7FEFF 		bl	RCC_APB1PeriphResetCmd
 110 00c0 90E0     		b	.L19
 111              	.L9:
 112 00c2 7B68     		ldr	r3, [r7, #4]
 113 00c4 4F4A     		ldr	r2, .L20+24
 114 00c6 9342     		cmp	r3, r2
 115 00c8 0AD1     		bne	.L10
ARM GAS  C:\msys64\tmp\cc82fx43.s 			page 3


 116 00ca 0121     		movs	r1, #1
 117 00cc 4FF40050 		mov	r0, #8192
 118 00d0 FFF7FEFF 		bl	RCC_APB2PeriphResetCmd
 119 00d4 0021     		movs	r1, #0
 120 00d6 4FF40050 		mov	r0, #8192
 121 00da FFF7FEFF 		bl	RCC_APB2PeriphResetCmd
 122 00de 81E0     		b	.L19
 123              	.L10:
 124 00e0 7B68     		ldr	r3, [r7, #4]
 125 00e2 494A     		ldr	r2, .L20+28
 126 00e4 9342     		cmp	r3, r2
 127 00e6 0AD1     		bne	.L11
 128 00e8 0121     		movs	r1, #1
 129 00ea 4FF40020 		mov	r0, #524288
 130 00ee FFF7FEFF 		bl	RCC_APB2PeriphResetCmd
 131 00f2 0021     		movs	r1, #0
 132 00f4 4FF40020 		mov	r0, #524288
 133 00f8 FFF7FEFF 		bl	RCC_APB2PeriphResetCmd
 134 00fc 72E0     		b	.L19
 135              	.L11:
 136 00fe 7B68     		ldr	r3, [r7, #4]
 137 0100 424A     		ldr	r2, .L20+32
 138 0102 9342     		cmp	r3, r2
 139 0104 0AD1     		bne	.L12
 140 0106 0121     		movs	r1, #1
 141 0108 4FF48010 		mov	r0, #1048576
 142 010c FFF7FEFF 		bl	RCC_APB2PeriphResetCmd
 143 0110 0021     		movs	r1, #0
 144 0112 4FF48010 		mov	r0, #1048576
 145 0116 FFF7FEFF 		bl	RCC_APB2PeriphResetCmd
 146 011a 63E0     		b	.L19
 147              	.L12:
 148 011c 7B68     		ldr	r3, [r7, #4]
 149 011e 3C4A     		ldr	r2, .L20+36
 150 0120 9342     		cmp	r3, r2
 151 0122 0AD1     		bne	.L13
 152 0124 0121     		movs	r1, #1
 153 0126 4FF40010 		mov	r0, #2097152
 154 012a FFF7FEFF 		bl	RCC_APB2PeriphResetCmd
 155 012e 0021     		movs	r1, #0
 156 0130 4FF40010 		mov	r0, #2097152
 157 0134 FFF7FEFF 		bl	RCC_APB2PeriphResetCmd
 158 0138 54E0     		b	.L19
 159              	.L13:
 160 013a 7B68     		ldr	r3, [r7, #4]
 161 013c 354A     		ldr	r2, .L20+40
 162 013e 9342     		cmp	r3, r2
 163 0140 08D1     		bne	.L14
 164 0142 0121     		movs	r1, #1
 165 0144 4020     		movs	r0, #64
 166 0146 FFF7FEFF 		bl	RCC_APB1PeriphResetCmd
 167 014a 0021     		movs	r1, #0
 168 014c 4020     		movs	r0, #64
 169 014e FFF7FEFF 		bl	RCC_APB1PeriphResetCmd
 170 0152 47E0     		b	.L19
 171              	.L14:
 172 0154 7B68     		ldr	r3, [r7, #4]
ARM GAS  C:\msys64\tmp\cc82fx43.s 			page 4


 173 0156 304A     		ldr	r2, .L20+44
 174 0158 9342     		cmp	r3, r2
 175 015a 08D1     		bne	.L15
 176 015c 0121     		movs	r1, #1
 177 015e 8020     		movs	r0, #128
 178 0160 FFF7FEFF 		bl	RCC_APB1PeriphResetCmd
 179 0164 0021     		movs	r1, #0
 180 0166 8020     		movs	r0, #128
 181 0168 FFF7FEFF 		bl	RCC_APB1PeriphResetCmd
 182 016c 3AE0     		b	.L19
 183              	.L15:
 184 016e 7B68     		ldr	r3, [r7, #4]
 185 0170 2A4A     		ldr	r2, .L20+48
 186 0172 9342     		cmp	r3, r2
 187 0174 0AD1     		bne	.L16
 188 0176 0121     		movs	r1, #1
 189 0178 4FF48070 		mov	r0, #256
 190 017c FFF7FEFF 		bl	RCC_APB1PeriphResetCmd
 191 0180 0021     		movs	r1, #0
 192 0182 4FF48070 		mov	r0, #256
 193 0186 FFF7FEFF 		bl	RCC_APB1PeriphResetCmd
 194 018a 2BE0     		b	.L19
 195              	.L16:
 196 018c 7B68     		ldr	r3, [r7, #4]
 197 018e 244A     		ldr	r2, .L20+52
 198 0190 9342     		cmp	r3, r2
 199 0192 0AD1     		bne	.L17
 200 0194 0121     		movs	r1, #1
 201 0196 4FF48030 		mov	r0, #65536
 202 019a FFF7FEFF 		bl	RCC_APB2PeriphResetCmd
 203 019e 0021     		movs	r1, #0
 204 01a0 4FF48030 		mov	r0, #65536
 205 01a4 FFF7FEFF 		bl	RCC_APB2PeriphResetCmd
 206 01a8 1CE0     		b	.L19
 207              	.L17:
 208 01aa 7B68     		ldr	r3, [r7, #4]
 209 01ac 1D4A     		ldr	r2, .L20+56
 210 01ae 9342     		cmp	r3, r2
 211 01b0 0AD1     		bne	.L18
 212 01b2 0121     		movs	r1, #1
 213 01b4 4FF40030 		mov	r0, #131072
 214 01b8 FFF7FEFF 		bl	RCC_APB2PeriphResetCmd
 215 01bc 0021     		movs	r1, #0
 216 01be 4FF40030 		mov	r0, #131072
 217 01c2 FFF7FEFF 		bl	RCC_APB2PeriphResetCmd
 218 01c6 0DE0     		b	.L19
 219              	.L18:
 220 01c8 7B68     		ldr	r3, [r7, #4]
 221 01ca 174A     		ldr	r2, .L20+60
 222 01cc 9342     		cmp	r3, r2
 223 01ce 09D1     		bne	.L19
 224 01d0 0121     		movs	r1, #1
 225 01d2 4FF48020 		mov	r0, #262144
 226 01d6 FFF7FEFF 		bl	RCC_APB2PeriphResetCmd
 227 01da 0021     		movs	r1, #0
 228 01dc 4FF48020 		mov	r0, #262144
 229 01e0 FFF7FEFF 		bl	RCC_APB2PeriphResetCmd
ARM GAS  C:\msys64\tmp\cc82fx43.s 			page 5


 230              	.L19:
 231 01e4 00BF     		nop
 232 01e6 0837     		adds	r7, r7, #8
 233 01e8 BD46     		mov	sp, r7
 234              		@ sp needed
 235 01ea 80BD     		pop	{r7, pc}
 236              	.L21:
 237              		.align	2
 238              	.L20:
 239 01ec 002C0140 		.word	1073818624
 240 01f0 00040040 		.word	1073742848
 241 01f4 00080040 		.word	1073743872
 242 01f8 000C0040 		.word	1073744896
 243 01fc 00100040 		.word	1073745920
 244 0200 00140040 		.word	1073746944
 245 0204 00340140 		.word	1073820672
 246 0208 004C0140 		.word	1073826816
 247 020c 00500140 		.word	1073827840
 248 0210 00540140 		.word	1073828864
 249 0214 00180040 		.word	1073747968
 250 0218 001C0040 		.word	1073748992
 251 021c 00200040 		.word	1073750016
 252 0220 00400140 		.word	1073823744
 253 0224 00440140 		.word	1073824768
 254 0228 00480140 		.word	1073825792
 256              		.section	.text.TIM_TimeBaseInit,"ax",%progbits
 257              		.align	1
 258              		.global	TIM_TimeBaseInit
 259              		.syntax unified
 260              		.thumb
 261              		.thumb_func
 262              		.fpu softvfp
 264              	TIM_TimeBaseInit:
 265              		@ args = 0, pretend = 0, frame = 16
 266              		@ frame_needed = 1, uses_anonymous_args = 0
 267              		@ link register save eliminated.
 268 0000 80B4     		push	{r7}
 269 0002 85B0     		sub	sp, sp, #20
 270 0004 00AF     		add	r7, sp, #0
 271 0006 7860     		str	r0, [r7, #4]
 272 0008 3960     		str	r1, [r7]
 273 000a 0023     		movs	r3, #0
 274 000c FB81     		strh	r3, [r7, #14]	@ movhi
 275 000e 7B68     		ldr	r3, [r7, #4]
 276 0010 1B88     		ldrh	r3, [r3]	@ movhi
 277 0012 FB81     		strh	r3, [r7, #14]	@ movhi
 278 0014 7B68     		ldr	r3, [r7, #4]
 279 0016 2E4A     		ldr	r2, .L28
 280 0018 9342     		cmp	r3, r2
 281 001a 13D0     		beq	.L23
 282 001c 7B68     		ldr	r3, [r7, #4]
 283 001e 2D4A     		ldr	r2, .L28+4
 284 0020 9342     		cmp	r3, r2
 285 0022 0FD0     		beq	.L23
 286 0024 7B68     		ldr	r3, [r7, #4]
 287 0026 B3F1804F 		cmp	r3, #1073741824
 288 002a 0BD0     		beq	.L23
ARM GAS  C:\msys64\tmp\cc82fx43.s 			page 6


 289 002c 7B68     		ldr	r3, [r7, #4]
 290 002e 2A4A     		ldr	r2, .L28+8
 291 0030 9342     		cmp	r3, r2
 292 0032 07D0     		beq	.L23
 293 0034 7B68     		ldr	r3, [r7, #4]
 294 0036 294A     		ldr	r2, .L28+12
 295 0038 9342     		cmp	r3, r2
 296 003a 03D0     		beq	.L23
 297 003c 7B68     		ldr	r3, [r7, #4]
 298 003e 284A     		ldr	r2, .L28+16
 299 0040 9342     		cmp	r3, r2
 300 0042 08D1     		bne	.L24
 301              	.L23:
 302 0044 FB89     		ldrh	r3, [r7, #14]	@ movhi
 303 0046 23F07003 		bic	r3, r3, #112
 304 004a FB81     		strh	r3, [r7, #14]	@ movhi
 305 004c 3B68     		ldr	r3, [r7]
 306 004e 5A88     		ldrh	r2, [r3, #2]
 307 0050 FB89     		ldrh	r3, [r7, #14]	@ movhi
 308 0052 1343     		orrs	r3, r3, r2
 309 0054 FB81     		strh	r3, [r7, #14]	@ movhi
 310              	.L24:
 311 0056 7B68     		ldr	r3, [r7, #4]
 312 0058 224A     		ldr	r2, .L28+20
 313 005a 9342     		cmp	r3, r2
 314 005c 0CD0     		beq	.L25
 315 005e 7B68     		ldr	r3, [r7, #4]
 316 0060 214A     		ldr	r2, .L28+24
 317 0062 9342     		cmp	r3, r2
 318 0064 08D0     		beq	.L25
 319 0066 FB89     		ldrh	r3, [r7, #14]	@ movhi
 320 0068 23F44073 		bic	r3, r3, #768
 321 006c FB81     		strh	r3, [r7, #14]	@ movhi
 322 006e 3B68     		ldr	r3, [r7]
 323 0070 DA88     		ldrh	r2, [r3, #6]
 324 0072 FB89     		ldrh	r3, [r7, #14]	@ movhi
 325 0074 1343     		orrs	r3, r3, r2
 326 0076 FB81     		strh	r3, [r7, #14]	@ movhi
 327              	.L25:
 328 0078 7B68     		ldr	r3, [r7, #4]
 329 007a FA89     		ldrh	r2, [r7, #14]	@ movhi
 330 007c 1A80     		strh	r2, [r3]	@ movhi
 331 007e 3B68     		ldr	r3, [r7]
 332 0080 9A88     		ldrh	r2, [r3, #4]
 333 0082 7B68     		ldr	r3, [r7, #4]
 334 0084 9A85     		strh	r2, [r3, #44]	@ movhi
 335 0086 3B68     		ldr	r3, [r7]
 336 0088 1A88     		ldrh	r2, [r3]
 337 008a 7B68     		ldr	r3, [r7, #4]
 338 008c 1A85     		strh	r2, [r3, #40]	@ movhi
 339 008e 7B68     		ldr	r3, [r7, #4]
 340 0090 0F4A     		ldr	r2, .L28
 341 0092 9342     		cmp	r3, r2
 342 0094 0FD0     		beq	.L26
 343 0096 7B68     		ldr	r3, [r7, #4]
 344 0098 0E4A     		ldr	r2, .L28+4
 345 009a 9342     		cmp	r3, r2
ARM GAS  C:\msys64\tmp\cc82fx43.s 			page 7


 346 009c 0BD0     		beq	.L26
 347 009e 7B68     		ldr	r3, [r7, #4]
 348 00a0 124A     		ldr	r2, .L28+28
 349 00a2 9342     		cmp	r3, r2
 350 00a4 07D0     		beq	.L26
 351 00a6 7B68     		ldr	r3, [r7, #4]
 352 00a8 114A     		ldr	r2, .L28+32
 353 00aa 9342     		cmp	r3, r2
 354 00ac 03D0     		beq	.L26
 355 00ae 7B68     		ldr	r3, [r7, #4]
 356 00b0 104A     		ldr	r2, .L28+36
 357 00b2 9342     		cmp	r3, r2
 358 00b4 04D1     		bne	.L27
 359              	.L26:
 360 00b6 3B68     		ldr	r3, [r7]
 361 00b8 1B7A     		ldrb	r3, [r3, #8]	@ zero_extendqisi2
 362 00ba 9AB2     		uxth	r2, r3
 363 00bc 7B68     		ldr	r3, [r7, #4]
 364 00be 1A86     		strh	r2, [r3, #48]	@ movhi
 365              	.L27:
 366 00c0 7B68     		ldr	r3, [r7, #4]
 367 00c2 0122     		movs	r2, #1
 368 00c4 9A82     		strh	r2, [r3, #20]	@ movhi
 369 00c6 00BF     		nop
 370 00c8 1437     		adds	r7, r7, #20
 371 00ca BD46     		mov	sp, r7
 372              		@ sp needed
 373 00cc 80BC     		pop	{r7}
 374 00ce 7047     		bx	lr
 375              	.L29:
 376              		.align	2
 377              	.L28:
 378 00d0 002C0140 		.word	1073818624
 379 00d4 00340140 		.word	1073820672
 380 00d8 00040040 		.word	1073742848
 381 00dc 00080040 		.word	1073743872
 382 00e0 000C0040 		.word	1073744896
 383 00e4 00100040 		.word	1073745920
 384 00e8 00140040 		.word	1073746944
 385 00ec 00400140 		.word	1073823744
 386 00f0 00440140 		.word	1073824768
 387 00f4 00480140 		.word	1073825792
 389              		.section	.text.TIM_OC1Init,"ax",%progbits
 390              		.align	1
 391              		.global	TIM_OC1Init
 392              		.syntax unified
 393              		.thumb
 394              		.thumb_func
 395              		.fpu softvfp
 397              	TIM_OC1Init:
 398              		@ args = 0, pretend = 0, frame = 16
 399              		@ frame_needed = 1, uses_anonymous_args = 0
 400              		@ link register save eliminated.
 401 0000 80B4     		push	{r7}
 402 0002 85B0     		sub	sp, sp, #20
 403 0004 00AF     		add	r7, sp, #0
 404 0006 7860     		str	r0, [r7, #4]
ARM GAS  C:\msys64\tmp\cc82fx43.s 			page 8


 405 0008 3960     		str	r1, [r7]
 406 000a 0023     		movs	r3, #0
 407 000c 7B81     		strh	r3, [r7, #10]	@ movhi
 408 000e 0023     		movs	r3, #0
 409 0010 FB81     		strh	r3, [r7, #14]	@ movhi
 410 0012 0023     		movs	r3, #0
 411 0014 BB81     		strh	r3, [r7, #12]	@ movhi
 412 0016 7B68     		ldr	r3, [r7, #4]
 413 0018 1B8C     		ldrh	r3, [r3, #32]	@ movhi
 414 001a 9BB2     		uxth	r3, r3
 415 001c 23F00103 		bic	r3, r3, #1
 416 0020 9AB2     		uxth	r2, r3
 417 0022 7B68     		ldr	r3, [r7, #4]
 418 0024 1A84     		strh	r2, [r3, #32]	@ movhi
 419 0026 7B68     		ldr	r3, [r7, #4]
 420 0028 1B8C     		ldrh	r3, [r3, #32]	@ movhi
 421 002a FB81     		strh	r3, [r7, #14]	@ movhi
 422 002c 7B68     		ldr	r3, [r7, #4]
 423 002e 9B88     		ldrh	r3, [r3, #4]	@ movhi
 424 0030 BB81     		strh	r3, [r7, #12]	@ movhi
 425 0032 7B68     		ldr	r3, [r7, #4]
 426 0034 1B8B     		ldrh	r3, [r3, #24]	@ movhi
 427 0036 7B81     		strh	r3, [r7, #10]	@ movhi
 428 0038 7B89     		ldrh	r3, [r7, #10]	@ movhi
 429 003a 23F07003 		bic	r3, r3, #112
 430 003e 7B81     		strh	r3, [r7, #10]	@ movhi
 431 0040 7B89     		ldrh	r3, [r7, #10]	@ movhi
 432 0042 23F00303 		bic	r3, r3, #3
 433 0046 7B81     		strh	r3, [r7, #10]	@ movhi
 434 0048 3B68     		ldr	r3, [r7]
 435 004a 1A88     		ldrh	r2, [r3]
 436 004c 7B89     		ldrh	r3, [r7, #10]	@ movhi
 437 004e 1343     		orrs	r3, r3, r2
 438 0050 7B81     		strh	r3, [r7, #10]	@ movhi
 439 0052 FB89     		ldrh	r3, [r7, #14]	@ movhi
 440 0054 23F00203 		bic	r3, r3, #2
 441 0058 FB81     		strh	r3, [r7, #14]	@ movhi
 442 005a 3B68     		ldr	r3, [r7]
 443 005c 1A89     		ldrh	r2, [r3, #8]
 444 005e FB89     		ldrh	r3, [r7, #14]	@ movhi
 445 0060 1343     		orrs	r3, r3, r2
 446 0062 FB81     		strh	r3, [r7, #14]	@ movhi
 447 0064 3B68     		ldr	r3, [r7]
 448 0066 5A88     		ldrh	r2, [r3, #2]
 449 0068 FB89     		ldrh	r3, [r7, #14]	@ movhi
 450 006a 1343     		orrs	r3, r3, r2
 451 006c FB81     		strh	r3, [r7, #14]	@ movhi
 452 006e 7B68     		ldr	r3, [r7, #4]
 453 0070 244A     		ldr	r2, .L33
 454 0072 9342     		cmp	r3, r2
 455 0074 0FD0     		beq	.L31
 456 0076 7B68     		ldr	r3, [r7, #4]
 457 0078 234A     		ldr	r2, .L33+4
 458 007a 9342     		cmp	r3, r2
 459 007c 0BD0     		beq	.L31
 460 007e 7B68     		ldr	r3, [r7, #4]
 461 0080 224A     		ldr	r2, .L33+8
ARM GAS  C:\msys64\tmp\cc82fx43.s 			page 9


 462 0082 9342     		cmp	r3, r2
 463 0084 07D0     		beq	.L31
 464 0086 7B68     		ldr	r3, [r7, #4]
 465 0088 214A     		ldr	r2, .L33+12
 466 008a 9342     		cmp	r3, r2
 467 008c 03D0     		beq	.L31
 468 008e 7B68     		ldr	r3, [r7, #4]
 469 0090 204A     		ldr	r2, .L33+16
 470 0092 9342     		cmp	r3, r2
 471 0094 23D1     		bne	.L32
 472              	.L31:
 473 0096 FB89     		ldrh	r3, [r7, #14]	@ movhi
 474 0098 23F00803 		bic	r3, r3, #8
 475 009c FB81     		strh	r3, [r7, #14]	@ movhi
 476 009e 3B68     		ldr	r3, [r7]
 477 00a0 5A89     		ldrh	r2, [r3, #10]
 478 00a2 FB89     		ldrh	r3, [r7, #14]	@ movhi
 479 00a4 1343     		orrs	r3, r3, r2
 480 00a6 FB81     		strh	r3, [r7, #14]	@ movhi
 481 00a8 FB89     		ldrh	r3, [r7, #14]	@ movhi
 482 00aa 23F00403 		bic	r3, r3, #4
 483 00ae FB81     		strh	r3, [r7, #14]	@ movhi
 484 00b0 3B68     		ldr	r3, [r7]
 485 00b2 9A88     		ldrh	r2, [r3, #4]
 486 00b4 FB89     		ldrh	r3, [r7, #14]	@ movhi
 487 00b6 1343     		orrs	r3, r3, r2
 488 00b8 FB81     		strh	r3, [r7, #14]	@ movhi
 489 00ba BB89     		ldrh	r3, [r7, #12]	@ movhi
 490 00bc 23F48073 		bic	r3, r3, #256
 491 00c0 BB81     		strh	r3, [r7, #12]	@ movhi
 492 00c2 BB89     		ldrh	r3, [r7, #12]	@ movhi
 493 00c4 23F40073 		bic	r3, r3, #512
 494 00c8 BB81     		strh	r3, [r7, #12]	@ movhi
 495 00ca 3B68     		ldr	r3, [r7]
 496 00cc 9A89     		ldrh	r2, [r3, #12]
 497 00ce BB89     		ldrh	r3, [r7, #12]	@ movhi
 498 00d0 1343     		orrs	r3, r3, r2
 499 00d2 BB81     		strh	r3, [r7, #12]	@ movhi
 500 00d4 3B68     		ldr	r3, [r7]
 501 00d6 DA89     		ldrh	r2, [r3, #14]
 502 00d8 BB89     		ldrh	r3, [r7, #12]	@ movhi
 503 00da 1343     		orrs	r3, r3, r2
 504 00dc BB81     		strh	r3, [r7, #12]	@ movhi
 505              	.L32:
 506 00de 7B68     		ldr	r3, [r7, #4]
 507 00e0 BA89     		ldrh	r2, [r7, #12]	@ movhi
 508 00e2 9A80     		strh	r2, [r3, #4]	@ movhi
 509 00e4 7B68     		ldr	r3, [r7, #4]
 510 00e6 7A89     		ldrh	r2, [r7, #10]	@ movhi
 511 00e8 1A83     		strh	r2, [r3, #24]	@ movhi
 512 00ea 3B68     		ldr	r3, [r7]
 513 00ec DA88     		ldrh	r2, [r3, #6]
 514 00ee 7B68     		ldr	r3, [r7, #4]
 515 00f0 9A86     		strh	r2, [r3, #52]	@ movhi
 516 00f2 7B68     		ldr	r3, [r7, #4]
 517 00f4 FA89     		ldrh	r2, [r7, #14]	@ movhi
 518 00f6 1A84     		strh	r2, [r3, #32]	@ movhi
ARM GAS  C:\msys64\tmp\cc82fx43.s 			page 10


 519 00f8 00BF     		nop
 520 00fa 1437     		adds	r7, r7, #20
 521 00fc BD46     		mov	sp, r7
 522              		@ sp needed
 523 00fe 80BC     		pop	{r7}
 524 0100 7047     		bx	lr
 525              	.L34:
 526 0102 00BF     		.align	2
 527              	.L33:
 528 0104 002C0140 		.word	1073818624
 529 0108 00340140 		.word	1073820672
 530 010c 00400140 		.word	1073823744
 531 0110 00440140 		.word	1073824768
 532 0114 00480140 		.word	1073825792
 534              		.section	.text.TIM_OC2Init,"ax",%progbits
 535              		.align	1
 536              		.global	TIM_OC2Init
 537              		.syntax unified
 538              		.thumb
 539              		.thumb_func
 540              		.fpu softvfp
 542              	TIM_OC2Init:
 543              		@ args = 0, pretend = 0, frame = 16
 544              		@ frame_needed = 1, uses_anonymous_args = 0
 545              		@ link register save eliminated.
 546 0000 80B4     		push	{r7}
 547 0002 85B0     		sub	sp, sp, #20
 548 0004 00AF     		add	r7, sp, #0
 549 0006 7860     		str	r0, [r7, #4]
 550 0008 3960     		str	r1, [r7]
 551 000a 0023     		movs	r3, #0
 552 000c 7B81     		strh	r3, [r7, #10]	@ movhi
 553 000e 0023     		movs	r3, #0
 554 0010 FB81     		strh	r3, [r7, #14]	@ movhi
 555 0012 0023     		movs	r3, #0
 556 0014 BB81     		strh	r3, [r7, #12]	@ movhi
 557 0016 7B68     		ldr	r3, [r7, #4]
 558 0018 1B8C     		ldrh	r3, [r3, #32]	@ movhi
 559 001a 9BB2     		uxth	r3, r3
 560 001c 23F01003 		bic	r3, r3, #16
 561 0020 9AB2     		uxth	r2, r3
 562 0022 7B68     		ldr	r3, [r7, #4]
 563 0024 1A84     		strh	r2, [r3, #32]	@ movhi
 564 0026 7B68     		ldr	r3, [r7, #4]
 565 0028 1B8C     		ldrh	r3, [r3, #32]	@ movhi
 566 002a FB81     		strh	r3, [r7, #14]	@ movhi
 567 002c 7B68     		ldr	r3, [r7, #4]
 568 002e 9B88     		ldrh	r3, [r3, #4]	@ movhi
 569 0030 BB81     		strh	r3, [r7, #12]	@ movhi
 570 0032 7B68     		ldr	r3, [r7, #4]
 571 0034 1B8B     		ldrh	r3, [r3, #24]	@ movhi
 572 0036 7B81     		strh	r3, [r7, #10]	@ movhi
 573 0038 7B89     		ldrh	r3, [r7, #10]	@ movhi
 574 003a 23F4E043 		bic	r3, r3, #28672
 575 003e 7B81     		strh	r3, [r7, #10]	@ movhi
 576 0040 7B89     		ldrh	r3, [r7, #10]	@ movhi
 577 0042 23F44073 		bic	r3, r3, #768
ARM GAS  C:\msys64\tmp\cc82fx43.s 			page 11


 578 0046 7B81     		strh	r3, [r7, #10]	@ movhi
 579 0048 3B68     		ldr	r3, [r7]
 580 004a 1B88     		ldrh	r3, [r3]
 581 004c 1B02     		lsls	r3, r3, #8
 582 004e 9AB2     		uxth	r2, r3
 583 0050 7B89     		ldrh	r3, [r7, #10]	@ movhi
 584 0052 1343     		orrs	r3, r3, r2
 585 0054 7B81     		strh	r3, [r7, #10]	@ movhi
 586 0056 FB89     		ldrh	r3, [r7, #14]	@ movhi
 587 0058 23F02003 		bic	r3, r3, #32
 588 005c FB81     		strh	r3, [r7, #14]	@ movhi
 589 005e 3B68     		ldr	r3, [r7]
 590 0060 1B89     		ldrh	r3, [r3, #8]
 591 0062 1B01     		lsls	r3, r3, #4
 592 0064 9AB2     		uxth	r2, r3
 593 0066 FB89     		ldrh	r3, [r7, #14]	@ movhi
 594 0068 1343     		orrs	r3, r3, r2
 595 006a FB81     		strh	r3, [r7, #14]	@ movhi
 596 006c 3B68     		ldr	r3, [r7]
 597 006e 5B88     		ldrh	r3, [r3, #2]
 598 0070 1B01     		lsls	r3, r3, #4
 599 0072 9AB2     		uxth	r2, r3
 600 0074 FB89     		ldrh	r3, [r7, #14]	@ movhi
 601 0076 1343     		orrs	r3, r3, r2
 602 0078 FB81     		strh	r3, [r7, #14]	@ movhi
 603 007a 7B68     		ldr	r3, [r7, #4]
 604 007c 224A     		ldr	r2, .L38
 605 007e 9342     		cmp	r3, r2
 606 0080 03D0     		beq	.L36
 607 0082 7B68     		ldr	r3, [r7, #4]
 608 0084 214A     		ldr	r2, .L38+4
 609 0086 9342     		cmp	r3, r2
 610 0088 2BD1     		bne	.L37
 611              	.L36:
 612 008a FB89     		ldrh	r3, [r7, #14]	@ movhi
 613 008c 23F08003 		bic	r3, r3, #128
 614 0090 FB81     		strh	r3, [r7, #14]	@ movhi
 615 0092 3B68     		ldr	r3, [r7]
 616 0094 5B89     		ldrh	r3, [r3, #10]
 617 0096 1B01     		lsls	r3, r3, #4
 618 0098 9AB2     		uxth	r2, r3
 619 009a FB89     		ldrh	r3, [r7, #14]	@ movhi
 620 009c 1343     		orrs	r3, r3, r2
 621 009e FB81     		strh	r3, [r7, #14]	@ movhi
 622 00a0 FB89     		ldrh	r3, [r7, #14]	@ movhi
 623 00a2 23F04003 		bic	r3, r3, #64
 624 00a6 FB81     		strh	r3, [r7, #14]	@ movhi
 625 00a8 3B68     		ldr	r3, [r7]
 626 00aa 9B88     		ldrh	r3, [r3, #4]
 627 00ac 1B01     		lsls	r3, r3, #4
 628 00ae 9AB2     		uxth	r2, r3
 629 00b0 FB89     		ldrh	r3, [r7, #14]	@ movhi
 630 00b2 1343     		orrs	r3, r3, r2
 631 00b4 FB81     		strh	r3, [r7, #14]	@ movhi
 632 00b6 BB89     		ldrh	r3, [r7, #12]	@ movhi
 633 00b8 23F48063 		bic	r3, r3, #1024
 634 00bc BB81     		strh	r3, [r7, #12]	@ movhi
ARM GAS  C:\msys64\tmp\cc82fx43.s 			page 12


 635 00be BB89     		ldrh	r3, [r7, #12]	@ movhi
 636 00c0 23F40063 		bic	r3, r3, #2048
 637 00c4 BB81     		strh	r3, [r7, #12]	@ movhi
 638 00c6 3B68     		ldr	r3, [r7]
 639 00c8 9B89     		ldrh	r3, [r3, #12]
 640 00ca 9B00     		lsls	r3, r3, #2
 641 00cc 9AB2     		uxth	r2, r3
 642 00ce BB89     		ldrh	r3, [r7, #12]	@ movhi
 643 00d0 1343     		orrs	r3, r3, r2
 644 00d2 BB81     		strh	r3, [r7, #12]	@ movhi
 645 00d4 3B68     		ldr	r3, [r7]
 646 00d6 DB89     		ldrh	r3, [r3, #14]
 647 00d8 9B00     		lsls	r3, r3, #2
 648 00da 9AB2     		uxth	r2, r3
 649 00dc BB89     		ldrh	r3, [r7, #12]	@ movhi
 650 00de 1343     		orrs	r3, r3, r2
 651 00e0 BB81     		strh	r3, [r7, #12]	@ movhi
 652              	.L37:
 653 00e2 7B68     		ldr	r3, [r7, #4]
 654 00e4 BA89     		ldrh	r2, [r7, #12]	@ movhi
 655 00e6 9A80     		strh	r2, [r3, #4]	@ movhi
 656 00e8 7B68     		ldr	r3, [r7, #4]
 657 00ea 7A89     		ldrh	r2, [r7, #10]	@ movhi
 658 00ec 1A83     		strh	r2, [r3, #24]	@ movhi
 659 00ee 3B68     		ldr	r3, [r7]
 660 00f0 DA88     		ldrh	r2, [r3, #6]
 661 00f2 7B68     		ldr	r3, [r7, #4]
 662 00f4 1A87     		strh	r2, [r3, #56]	@ movhi
 663 00f6 7B68     		ldr	r3, [r7, #4]
 664 00f8 FA89     		ldrh	r2, [r7, #14]	@ movhi
 665 00fa 1A84     		strh	r2, [r3, #32]	@ movhi
 666 00fc 00BF     		nop
 667 00fe 1437     		adds	r7, r7, #20
 668 0100 BD46     		mov	sp, r7
 669              		@ sp needed
 670 0102 80BC     		pop	{r7}
 671 0104 7047     		bx	lr
 672              	.L39:
 673 0106 00BF     		.align	2
 674              	.L38:
 675 0108 002C0140 		.word	1073818624
 676 010c 00340140 		.word	1073820672
 678              		.section	.text.TIM_OC3Init,"ax",%progbits
 679              		.align	1
 680              		.global	TIM_OC3Init
 681              		.syntax unified
 682              		.thumb
 683              		.thumb_func
 684              		.fpu softvfp
 686              	TIM_OC3Init:
 687              		@ args = 0, pretend = 0, frame = 16
 688              		@ frame_needed = 1, uses_anonymous_args = 0
 689              		@ link register save eliminated.
 690 0000 80B4     		push	{r7}
 691 0002 85B0     		sub	sp, sp, #20
 692 0004 00AF     		add	r7, sp, #0
 693 0006 7860     		str	r0, [r7, #4]
ARM GAS  C:\msys64\tmp\cc82fx43.s 			page 13


 694 0008 3960     		str	r1, [r7]
 695 000a 0023     		movs	r3, #0
 696 000c 7B81     		strh	r3, [r7, #10]	@ movhi
 697 000e 0023     		movs	r3, #0
 698 0010 FB81     		strh	r3, [r7, #14]	@ movhi
 699 0012 0023     		movs	r3, #0
 700 0014 BB81     		strh	r3, [r7, #12]	@ movhi
 701 0016 7B68     		ldr	r3, [r7, #4]
 702 0018 1B8C     		ldrh	r3, [r3, #32]	@ movhi
 703 001a 9BB2     		uxth	r3, r3
 704 001c 23F48073 		bic	r3, r3, #256
 705 0020 9AB2     		uxth	r2, r3
 706 0022 7B68     		ldr	r3, [r7, #4]
 707 0024 1A84     		strh	r2, [r3, #32]	@ movhi
 708 0026 7B68     		ldr	r3, [r7, #4]
 709 0028 1B8C     		ldrh	r3, [r3, #32]	@ movhi
 710 002a FB81     		strh	r3, [r7, #14]	@ movhi
 711 002c 7B68     		ldr	r3, [r7, #4]
 712 002e 9B88     		ldrh	r3, [r3, #4]	@ movhi
 713 0030 BB81     		strh	r3, [r7, #12]	@ movhi
 714 0032 7B68     		ldr	r3, [r7, #4]
 715 0034 9B8B     		ldrh	r3, [r3, #28]	@ movhi
 716 0036 7B81     		strh	r3, [r7, #10]	@ movhi
 717 0038 7B89     		ldrh	r3, [r7, #10]	@ movhi
 718 003a 23F07003 		bic	r3, r3, #112
 719 003e 7B81     		strh	r3, [r7, #10]	@ movhi
 720 0040 7B89     		ldrh	r3, [r7, #10]	@ movhi
 721 0042 23F00303 		bic	r3, r3, #3
 722 0046 7B81     		strh	r3, [r7, #10]	@ movhi
 723 0048 3B68     		ldr	r3, [r7]
 724 004a 1A88     		ldrh	r2, [r3]
 725 004c 7B89     		ldrh	r3, [r7, #10]	@ movhi
 726 004e 1343     		orrs	r3, r3, r2
 727 0050 7B81     		strh	r3, [r7, #10]	@ movhi
 728 0052 FB89     		ldrh	r3, [r7, #14]	@ movhi
 729 0054 23F40073 		bic	r3, r3, #512
 730 0058 FB81     		strh	r3, [r7, #14]	@ movhi
 731 005a 3B68     		ldr	r3, [r7]
 732 005c 1B89     		ldrh	r3, [r3, #8]
 733 005e 1B02     		lsls	r3, r3, #8
 734 0060 9AB2     		uxth	r2, r3
 735 0062 FB89     		ldrh	r3, [r7, #14]	@ movhi
 736 0064 1343     		orrs	r3, r3, r2
 737 0066 FB81     		strh	r3, [r7, #14]	@ movhi
 738 0068 3B68     		ldr	r3, [r7]
 739 006a 5B88     		ldrh	r3, [r3, #2]
 740 006c 1B02     		lsls	r3, r3, #8
 741 006e 9AB2     		uxth	r2, r3
 742 0070 FB89     		ldrh	r3, [r7, #14]	@ movhi
 743 0072 1343     		orrs	r3, r3, r2
 744 0074 FB81     		strh	r3, [r7, #14]	@ movhi
 745 0076 7B68     		ldr	r3, [r7, #4]
 746 0078 224A     		ldr	r2, .L43
 747 007a 9342     		cmp	r3, r2
 748 007c 03D0     		beq	.L41
 749 007e 7B68     		ldr	r3, [r7, #4]
 750 0080 214A     		ldr	r2, .L43+4
ARM GAS  C:\msys64\tmp\cc82fx43.s 			page 14


 751 0082 9342     		cmp	r3, r2
 752 0084 2BD1     		bne	.L42
 753              	.L41:
 754 0086 FB89     		ldrh	r3, [r7, #14]	@ movhi
 755 0088 23F40063 		bic	r3, r3, #2048
 756 008c FB81     		strh	r3, [r7, #14]	@ movhi
 757 008e 3B68     		ldr	r3, [r7]
 758 0090 5B89     		ldrh	r3, [r3, #10]
 759 0092 1B02     		lsls	r3, r3, #8
 760 0094 9AB2     		uxth	r2, r3
 761 0096 FB89     		ldrh	r3, [r7, #14]	@ movhi
 762 0098 1343     		orrs	r3, r3, r2
 763 009a FB81     		strh	r3, [r7, #14]	@ movhi
 764 009c FB89     		ldrh	r3, [r7, #14]	@ movhi
 765 009e 23F48063 		bic	r3, r3, #1024
 766 00a2 FB81     		strh	r3, [r7, #14]	@ movhi
 767 00a4 3B68     		ldr	r3, [r7]
 768 00a6 9B88     		ldrh	r3, [r3, #4]
 769 00a8 1B02     		lsls	r3, r3, #8
 770 00aa 9AB2     		uxth	r2, r3
 771 00ac FB89     		ldrh	r3, [r7, #14]	@ movhi
 772 00ae 1343     		orrs	r3, r3, r2
 773 00b0 FB81     		strh	r3, [r7, #14]	@ movhi
 774 00b2 BB89     		ldrh	r3, [r7, #12]	@ movhi
 775 00b4 23F48053 		bic	r3, r3, #4096
 776 00b8 BB81     		strh	r3, [r7, #12]	@ movhi
 777 00ba BB89     		ldrh	r3, [r7, #12]	@ movhi
 778 00bc 23F40053 		bic	r3, r3, #8192
 779 00c0 BB81     		strh	r3, [r7, #12]	@ movhi
 780 00c2 3B68     		ldr	r3, [r7]
 781 00c4 9B89     		ldrh	r3, [r3, #12]
 782 00c6 1B01     		lsls	r3, r3, #4
 783 00c8 9AB2     		uxth	r2, r3
 784 00ca BB89     		ldrh	r3, [r7, #12]	@ movhi
 785 00cc 1343     		orrs	r3, r3, r2
 786 00ce BB81     		strh	r3, [r7, #12]	@ movhi
 787 00d0 3B68     		ldr	r3, [r7]
 788 00d2 DB89     		ldrh	r3, [r3, #14]
 789 00d4 1B01     		lsls	r3, r3, #4
 790 00d6 9AB2     		uxth	r2, r3
 791 00d8 BB89     		ldrh	r3, [r7, #12]	@ movhi
 792 00da 1343     		orrs	r3, r3, r2
 793 00dc BB81     		strh	r3, [r7, #12]	@ movhi
 794              	.L42:
 795 00de 7B68     		ldr	r3, [r7, #4]
 796 00e0 BA89     		ldrh	r2, [r7, #12]	@ movhi
 797 00e2 9A80     		strh	r2, [r3, #4]	@ movhi
 798 00e4 7B68     		ldr	r3, [r7, #4]
 799 00e6 7A89     		ldrh	r2, [r7, #10]	@ movhi
 800 00e8 9A83     		strh	r2, [r3, #28]	@ movhi
 801 00ea 3B68     		ldr	r3, [r7]
 802 00ec DA88     		ldrh	r2, [r3, #6]
 803 00ee 7B68     		ldr	r3, [r7, #4]
 804 00f0 9A87     		strh	r2, [r3, #60]	@ movhi
 805 00f2 7B68     		ldr	r3, [r7, #4]
 806 00f4 FA89     		ldrh	r2, [r7, #14]	@ movhi
 807 00f6 1A84     		strh	r2, [r3, #32]	@ movhi
ARM GAS  C:\msys64\tmp\cc82fx43.s 			page 15


 808 00f8 00BF     		nop
 809 00fa 1437     		adds	r7, r7, #20
 810 00fc BD46     		mov	sp, r7
 811              		@ sp needed
 812 00fe 80BC     		pop	{r7}
 813 0100 7047     		bx	lr
 814              	.L44:
 815 0102 00BF     		.align	2
 816              	.L43:
 817 0104 002C0140 		.word	1073818624
 818 0108 00340140 		.word	1073820672
 820              		.section	.text.TIM_OC4Init,"ax",%progbits
 821              		.align	1
 822              		.global	TIM_OC4Init
 823              		.syntax unified
 824              		.thumb
 825              		.thumb_func
 826              		.fpu softvfp
 828              	TIM_OC4Init:
 829              		@ args = 0, pretend = 0, frame = 16
 830              		@ frame_needed = 1, uses_anonymous_args = 0
 831              		@ link register save eliminated.
 832 0000 80B4     		push	{r7}
 833 0002 85B0     		sub	sp, sp, #20
 834 0004 00AF     		add	r7, sp, #0
 835 0006 7860     		str	r0, [r7, #4]
 836 0008 3960     		str	r1, [r7]
 837 000a 0023     		movs	r3, #0
 838 000c BB81     		strh	r3, [r7, #12]	@ movhi
 839 000e 0023     		movs	r3, #0
 840 0010 7B81     		strh	r3, [r7, #10]	@ movhi
 841 0012 0023     		movs	r3, #0
 842 0014 FB81     		strh	r3, [r7, #14]	@ movhi
 843 0016 7B68     		ldr	r3, [r7, #4]
 844 0018 1B8C     		ldrh	r3, [r3, #32]	@ movhi
 845 001a 9BB2     		uxth	r3, r3
 846 001c 23F48053 		bic	r3, r3, #4096
 847 0020 9AB2     		uxth	r2, r3
 848 0022 7B68     		ldr	r3, [r7, #4]
 849 0024 1A84     		strh	r2, [r3, #32]	@ movhi
 850 0026 7B68     		ldr	r3, [r7, #4]
 851 0028 1B8C     		ldrh	r3, [r3, #32]	@ movhi
 852 002a 7B81     		strh	r3, [r7, #10]	@ movhi
 853 002c 7B68     		ldr	r3, [r7, #4]
 854 002e 9B88     		ldrh	r3, [r3, #4]	@ movhi
 855 0030 FB81     		strh	r3, [r7, #14]	@ movhi
 856 0032 7B68     		ldr	r3, [r7, #4]
 857 0034 9B8B     		ldrh	r3, [r3, #28]	@ movhi
 858 0036 BB81     		strh	r3, [r7, #12]	@ movhi
 859 0038 BB89     		ldrh	r3, [r7, #12]	@ movhi
 860 003a 23F4E043 		bic	r3, r3, #28672
 861 003e BB81     		strh	r3, [r7, #12]	@ movhi
 862 0040 BB89     		ldrh	r3, [r7, #12]	@ movhi
 863 0042 23F44073 		bic	r3, r3, #768
 864 0046 BB81     		strh	r3, [r7, #12]	@ movhi
 865 0048 3B68     		ldr	r3, [r7]
 866 004a 1B88     		ldrh	r3, [r3]
ARM GAS  C:\msys64\tmp\cc82fx43.s 			page 16


 867 004c 1B02     		lsls	r3, r3, #8
 868 004e 9AB2     		uxth	r2, r3
 869 0050 BB89     		ldrh	r3, [r7, #12]	@ movhi
 870 0052 1343     		orrs	r3, r3, r2
 871 0054 BB81     		strh	r3, [r7, #12]	@ movhi
 872 0056 7B89     		ldrh	r3, [r7, #10]	@ movhi
 873 0058 23F40053 		bic	r3, r3, #8192
 874 005c 7B81     		strh	r3, [r7, #10]	@ movhi
 875 005e 3B68     		ldr	r3, [r7]
 876 0060 1B89     		ldrh	r3, [r3, #8]
 877 0062 1B03     		lsls	r3, r3, #12
 878 0064 9AB2     		uxth	r2, r3
 879 0066 7B89     		ldrh	r3, [r7, #10]	@ movhi
 880 0068 1343     		orrs	r3, r3, r2
 881 006a 7B81     		strh	r3, [r7, #10]	@ movhi
 882 006c 3B68     		ldr	r3, [r7]
 883 006e 5B88     		ldrh	r3, [r3, #2]
 884 0070 1B03     		lsls	r3, r3, #12
 885 0072 9AB2     		uxth	r2, r3
 886 0074 7B89     		ldrh	r3, [r7, #10]	@ movhi
 887 0076 1343     		orrs	r3, r3, r2
 888 0078 7B81     		strh	r3, [r7, #10]	@ movhi
 889 007a 7B68     		ldr	r3, [r7, #4]
 890 007c 124A     		ldr	r2, .L48
 891 007e 9342     		cmp	r3, r2
 892 0080 03D0     		beq	.L46
 893 0082 7B68     		ldr	r3, [r7, #4]
 894 0084 114A     		ldr	r2, .L48+4
 895 0086 9342     		cmp	r3, r2
 896 0088 0AD1     		bne	.L47
 897              	.L46:
 898 008a FB89     		ldrh	r3, [r7, #14]	@ movhi
 899 008c 23F48043 		bic	r3, r3, #16384
 900 0090 FB81     		strh	r3, [r7, #14]	@ movhi
 901 0092 3B68     		ldr	r3, [r7]
 902 0094 9B89     		ldrh	r3, [r3, #12]
 903 0096 9B01     		lsls	r3, r3, #6
 904 0098 9AB2     		uxth	r2, r3
 905 009a FB89     		ldrh	r3, [r7, #14]	@ movhi
 906 009c 1343     		orrs	r3, r3, r2
 907 009e FB81     		strh	r3, [r7, #14]	@ movhi
 908              	.L47:
 909 00a0 7B68     		ldr	r3, [r7, #4]
 910 00a2 FA89     		ldrh	r2, [r7, #14]	@ movhi
 911 00a4 9A80     		strh	r2, [r3, #4]	@ movhi
 912 00a6 7B68     		ldr	r3, [r7, #4]
 913 00a8 BA89     		ldrh	r2, [r7, #12]	@ movhi
 914 00aa 9A83     		strh	r2, [r3, #28]	@ movhi
 915 00ac 3B68     		ldr	r3, [r7]
 916 00ae DA88     		ldrh	r2, [r3, #6]
 917 00b0 7B68     		ldr	r3, [r7, #4]
 918 00b2 A3F84020 		strh	r2, [r3, #64]	@ movhi
 919 00b6 7B68     		ldr	r3, [r7, #4]
 920 00b8 7A89     		ldrh	r2, [r7, #10]	@ movhi
 921 00ba 1A84     		strh	r2, [r3, #32]	@ movhi
 922 00bc 00BF     		nop
 923 00be 1437     		adds	r7, r7, #20
ARM GAS  C:\msys64\tmp\cc82fx43.s 			page 17


 924 00c0 BD46     		mov	sp, r7
 925              		@ sp needed
 926 00c2 80BC     		pop	{r7}
 927 00c4 7047     		bx	lr
 928              	.L49:
 929 00c6 00BF     		.align	2
 930              	.L48:
 931 00c8 002C0140 		.word	1073818624
 932 00cc 00340140 		.word	1073820672
 934              		.section	.text.TIM_ICInit,"ax",%progbits
 935              		.align	1
 936              		.global	TIM_ICInit
 937              		.syntax unified
 938              		.thumb
 939              		.thumb_func
 940              		.fpu softvfp
 942              	TIM_ICInit:
 943              		@ args = 0, pretend = 0, frame = 8
 944              		@ frame_needed = 1, uses_anonymous_args = 0
 945 0000 80B5     		push	{r7, lr}
 946 0002 82B0     		sub	sp, sp, #8
 947 0004 00AF     		add	r7, sp, #0
 948 0006 7860     		str	r0, [r7, #4]
 949 0008 3960     		str	r1, [r7]
 950 000a 3B68     		ldr	r3, [r7]
 951 000c 1B88     		ldrh	r3, [r3]
 952 000e 002B     		cmp	r3, #0
 953 0010 0FD1     		bne	.L51
 954 0012 3B68     		ldr	r3, [r7]
 955 0014 5988     		ldrh	r1, [r3, #2]
 956 0016 3B68     		ldr	r3, [r7]
 957 0018 9A88     		ldrh	r2, [r3, #4]
 958 001a 3B68     		ldr	r3, [r7]
 959 001c 1B89     		ldrh	r3, [r3, #8]
 960 001e 7868     		ldr	r0, [r7, #4]
 961 0020 FFF7FEFF 		bl	TI1_Config
 962 0024 3B68     		ldr	r3, [r7]
 963 0026 DB88     		ldrh	r3, [r3, #6]
 964 0028 1946     		mov	r1, r3
 965 002a 7868     		ldr	r0, [r7, #4]
 966 002c FFF7FEFF 		bl	TIM_SetIC1Prescaler
 967 0030 36E0     		b	.L55
 968              	.L51:
 969 0032 3B68     		ldr	r3, [r7]
 970 0034 1B88     		ldrh	r3, [r3]
 971 0036 042B     		cmp	r3, #4
 972 0038 0FD1     		bne	.L53
 973 003a 3B68     		ldr	r3, [r7]
 974 003c 5988     		ldrh	r1, [r3, #2]
 975 003e 3B68     		ldr	r3, [r7]
 976 0040 9A88     		ldrh	r2, [r3, #4]
 977 0042 3B68     		ldr	r3, [r7]
 978 0044 1B89     		ldrh	r3, [r3, #8]
 979 0046 7868     		ldr	r0, [r7, #4]
 980 0048 FFF7FEFF 		bl	TI2_Config
 981 004c 3B68     		ldr	r3, [r7]
 982 004e DB88     		ldrh	r3, [r3, #6]
ARM GAS  C:\msys64\tmp\cc82fx43.s 			page 18


 983 0050 1946     		mov	r1, r3
 984 0052 7868     		ldr	r0, [r7, #4]
 985 0054 FFF7FEFF 		bl	TIM_SetIC2Prescaler
 986 0058 22E0     		b	.L55
 987              	.L53:
 988 005a 3B68     		ldr	r3, [r7]
 989 005c 1B88     		ldrh	r3, [r3]
 990 005e 082B     		cmp	r3, #8
 991 0060 0FD1     		bne	.L54
 992 0062 3B68     		ldr	r3, [r7]
 993 0064 5988     		ldrh	r1, [r3, #2]
 994 0066 3B68     		ldr	r3, [r7]
 995 0068 9A88     		ldrh	r2, [r3, #4]
 996 006a 3B68     		ldr	r3, [r7]
 997 006c 1B89     		ldrh	r3, [r3, #8]
 998 006e 7868     		ldr	r0, [r7, #4]
 999 0070 FFF7FEFF 		bl	TI3_Config
 1000 0074 3B68     		ldr	r3, [r7]
 1001 0076 DB88     		ldrh	r3, [r3, #6]
 1002 0078 1946     		mov	r1, r3
 1003 007a 7868     		ldr	r0, [r7, #4]
 1004 007c FFF7FEFF 		bl	TIM_SetIC3Prescaler
 1005 0080 0EE0     		b	.L55
 1006              	.L54:
 1007 0082 3B68     		ldr	r3, [r7]
 1008 0084 5988     		ldrh	r1, [r3, #2]
 1009 0086 3B68     		ldr	r3, [r7]
 1010 0088 9A88     		ldrh	r2, [r3, #4]
 1011 008a 3B68     		ldr	r3, [r7]
 1012 008c 1B89     		ldrh	r3, [r3, #8]
 1013 008e 7868     		ldr	r0, [r7, #4]
 1014 0090 FFF7FEFF 		bl	TI4_Config
 1015 0094 3B68     		ldr	r3, [r7]
 1016 0096 DB88     		ldrh	r3, [r3, #6]
 1017 0098 1946     		mov	r1, r3
 1018 009a 7868     		ldr	r0, [r7, #4]
 1019 009c FFF7FEFF 		bl	TIM_SetIC4Prescaler
 1020              	.L55:
 1021 00a0 00BF     		nop
 1022 00a2 0837     		adds	r7, r7, #8
 1023 00a4 BD46     		mov	sp, r7
 1024              		@ sp needed
 1025 00a6 80BD     		pop	{r7, pc}
 1027              		.section	.text.TIM_PWMIConfig,"ax",%progbits
 1028              		.align	1
 1029              		.global	TIM_PWMIConfig
 1030              		.syntax unified
 1031              		.thumb
 1032              		.thumb_func
 1033              		.fpu softvfp
 1035              	TIM_PWMIConfig:
 1036              		@ args = 0, pretend = 0, frame = 16
 1037              		@ frame_needed = 1, uses_anonymous_args = 0
 1038 0000 80B5     		push	{r7, lr}
 1039 0002 84B0     		sub	sp, sp, #16
 1040 0004 00AF     		add	r7, sp, #0
 1041 0006 7860     		str	r0, [r7, #4]
ARM GAS  C:\msys64\tmp\cc82fx43.s 			page 19


 1042 0008 3960     		str	r1, [r7]
 1043 000a 0023     		movs	r3, #0
 1044 000c FB81     		strh	r3, [r7, #14]	@ movhi
 1045 000e 0123     		movs	r3, #1
 1046 0010 BB81     		strh	r3, [r7, #12]	@ movhi
 1047 0012 3B68     		ldr	r3, [r7]
 1048 0014 5B88     		ldrh	r3, [r3, #2]
 1049 0016 002B     		cmp	r3, #0
 1050 0018 02D1     		bne	.L57
 1051 001a 0223     		movs	r3, #2
 1052 001c FB81     		strh	r3, [r7, #14]	@ movhi
 1053 001e 01E0     		b	.L58
 1054              	.L57:
 1055 0020 0023     		movs	r3, #0
 1056 0022 FB81     		strh	r3, [r7, #14]	@ movhi
 1057              	.L58:
 1058 0024 3B68     		ldr	r3, [r7]
 1059 0026 9B88     		ldrh	r3, [r3, #4]
 1060 0028 012B     		cmp	r3, #1
 1061 002a 02D1     		bne	.L59
 1062 002c 0223     		movs	r3, #2
 1063 002e BB81     		strh	r3, [r7, #12]	@ movhi
 1064 0030 01E0     		b	.L60
 1065              	.L59:
 1066 0032 0123     		movs	r3, #1
 1067 0034 BB81     		strh	r3, [r7, #12]	@ movhi
 1068              	.L60:
 1069 0036 3B68     		ldr	r3, [r7]
 1070 0038 1B88     		ldrh	r3, [r3]
 1071 003a 002B     		cmp	r3, #0
 1072 003c 1CD1     		bne	.L61
 1073 003e 3B68     		ldr	r3, [r7]
 1074 0040 5988     		ldrh	r1, [r3, #2]
 1075 0042 3B68     		ldr	r3, [r7]
 1076 0044 9A88     		ldrh	r2, [r3, #4]
 1077 0046 3B68     		ldr	r3, [r7]
 1078 0048 1B89     		ldrh	r3, [r3, #8]
 1079 004a 7868     		ldr	r0, [r7, #4]
 1080 004c FFF7FEFF 		bl	TI1_Config
 1081 0050 3B68     		ldr	r3, [r7]
 1082 0052 DB88     		ldrh	r3, [r3, #6]
 1083 0054 1946     		mov	r1, r3
 1084 0056 7868     		ldr	r0, [r7, #4]
 1085 0058 FFF7FEFF 		bl	TIM_SetIC1Prescaler
 1086 005c 3B68     		ldr	r3, [r7]
 1087 005e 1B89     		ldrh	r3, [r3, #8]
 1088 0060 BA89     		ldrh	r2, [r7, #12]
 1089 0062 F989     		ldrh	r1, [r7, #14]
 1090 0064 7868     		ldr	r0, [r7, #4]
 1091 0066 FFF7FEFF 		bl	TI2_Config
 1092 006a 3B68     		ldr	r3, [r7]
 1093 006c DB88     		ldrh	r3, [r3, #6]
 1094 006e 1946     		mov	r1, r3
 1095 0070 7868     		ldr	r0, [r7, #4]
 1096 0072 FFF7FEFF 		bl	TIM_SetIC2Prescaler
 1097 0076 1BE0     		b	.L63
 1098              	.L61:
ARM GAS  C:\msys64\tmp\cc82fx43.s 			page 20


 1099 0078 3B68     		ldr	r3, [r7]
 1100 007a 5988     		ldrh	r1, [r3, #2]
 1101 007c 3B68     		ldr	r3, [r7]
 1102 007e 9A88     		ldrh	r2, [r3, #4]
 1103 0080 3B68     		ldr	r3, [r7]
 1104 0082 1B89     		ldrh	r3, [r3, #8]
 1105 0084 7868     		ldr	r0, [r7, #4]
 1106 0086 FFF7FEFF 		bl	TI2_Config
 1107 008a 3B68     		ldr	r3, [r7]
 1108 008c DB88     		ldrh	r3, [r3, #6]
 1109 008e 1946     		mov	r1, r3
 1110 0090 7868     		ldr	r0, [r7, #4]
 1111 0092 FFF7FEFF 		bl	TIM_SetIC2Prescaler
 1112 0096 3B68     		ldr	r3, [r7]
 1113 0098 1B89     		ldrh	r3, [r3, #8]
 1114 009a BA89     		ldrh	r2, [r7, #12]
 1115 009c F989     		ldrh	r1, [r7, #14]
 1116 009e 7868     		ldr	r0, [r7, #4]
 1117 00a0 FFF7FEFF 		bl	TI1_Config
 1118 00a4 3B68     		ldr	r3, [r7]
 1119 00a6 DB88     		ldrh	r3, [r3, #6]
 1120 00a8 1946     		mov	r1, r3
 1121 00aa 7868     		ldr	r0, [r7, #4]
 1122 00ac FFF7FEFF 		bl	TIM_SetIC1Prescaler
 1123              	.L63:
 1124 00b0 00BF     		nop
 1125 00b2 1037     		adds	r7, r7, #16
 1126 00b4 BD46     		mov	sp, r7
 1127              		@ sp needed
 1128 00b6 80BD     		pop	{r7, pc}
 1130              		.section	.text.TIM_BDTRConfig,"ax",%progbits
 1131              		.align	1
 1132              		.global	TIM_BDTRConfig
 1133              		.syntax unified
 1134              		.thumb
 1135              		.thumb_func
 1136              		.fpu softvfp
 1138              	TIM_BDTRConfig:
 1139              		@ args = 0, pretend = 0, frame = 8
 1140              		@ frame_needed = 1, uses_anonymous_args = 0
 1141              		@ link register save eliminated.
 1142 0000 80B4     		push	{r7}
 1143 0002 83B0     		sub	sp, sp, #12
 1144 0004 00AF     		add	r7, sp, #0
 1145 0006 7860     		str	r0, [r7, #4]
 1146 0008 3960     		str	r1, [r7]
 1147 000a 3B68     		ldr	r3, [r7]
 1148 000c 1A88     		ldrh	r2, [r3]
 1149 000e 3B68     		ldr	r3, [r7]
 1150 0010 5B88     		ldrh	r3, [r3, #2]
 1151 0012 1343     		orrs	r3, r3, r2
 1152 0014 9AB2     		uxth	r2, r3
 1153 0016 3B68     		ldr	r3, [r7]
 1154 0018 9B88     		ldrh	r3, [r3, #4]
 1155 001a 1343     		orrs	r3, r3, r2
 1156 001c 9AB2     		uxth	r2, r3
 1157 001e 3B68     		ldr	r3, [r7]
ARM GAS  C:\msys64\tmp\cc82fx43.s 			page 21


 1158 0020 DB88     		ldrh	r3, [r3, #6]
 1159 0022 1343     		orrs	r3, r3, r2
 1160 0024 9AB2     		uxth	r2, r3
 1161 0026 3B68     		ldr	r3, [r7]
 1162 0028 1B89     		ldrh	r3, [r3, #8]
 1163 002a 1343     		orrs	r3, r3, r2
 1164 002c 9AB2     		uxth	r2, r3
 1165 002e 3B68     		ldr	r3, [r7]
 1166 0030 5B89     		ldrh	r3, [r3, #10]
 1167 0032 1343     		orrs	r3, r3, r2
 1168 0034 9AB2     		uxth	r2, r3
 1169 0036 3B68     		ldr	r3, [r7]
 1170 0038 9B89     		ldrh	r3, [r3, #12]
 1171 003a 1343     		orrs	r3, r3, r2
 1172 003c 9AB2     		uxth	r2, r3
 1173 003e 7B68     		ldr	r3, [r7, #4]
 1174 0040 A3F84420 		strh	r2, [r3, #68]	@ movhi
 1175 0044 00BF     		nop
 1176 0046 0C37     		adds	r7, r7, #12
 1177 0048 BD46     		mov	sp, r7
 1178              		@ sp needed
 1179 004a 80BC     		pop	{r7}
 1180 004c 7047     		bx	lr
 1182              		.section	.text.TIM_TimeBaseStructInit,"ax",%progbits
 1183              		.align	1
 1184              		.global	TIM_TimeBaseStructInit
 1185              		.syntax unified
 1186              		.thumb
 1187              		.thumb_func
 1188              		.fpu softvfp
 1190              	TIM_TimeBaseStructInit:
 1191              		@ args = 0, pretend = 0, frame = 8
 1192              		@ frame_needed = 1, uses_anonymous_args = 0
 1193              		@ link register save eliminated.
 1194 0000 80B4     		push	{r7}
 1195 0002 83B0     		sub	sp, sp, #12
 1196 0004 00AF     		add	r7, sp, #0
 1197 0006 7860     		str	r0, [r7, #4]
 1198 0008 7B68     		ldr	r3, [r7, #4]
 1199 000a 4FF6FF72 		movw	r2, #65535
 1200 000e 9A80     		strh	r2, [r3, #4]	@ movhi
 1201 0010 7B68     		ldr	r3, [r7, #4]
 1202 0012 0022     		movs	r2, #0
 1203 0014 1A80     		strh	r2, [r3]	@ movhi
 1204 0016 7B68     		ldr	r3, [r7, #4]
 1205 0018 0022     		movs	r2, #0
 1206 001a DA80     		strh	r2, [r3, #6]	@ movhi
 1207 001c 7B68     		ldr	r3, [r7, #4]
 1208 001e 0022     		movs	r2, #0
 1209 0020 5A80     		strh	r2, [r3, #2]	@ movhi
 1210 0022 7B68     		ldr	r3, [r7, #4]
 1211 0024 0022     		movs	r2, #0
 1212 0026 1A72     		strb	r2, [r3, #8]
 1213 0028 00BF     		nop
 1214 002a 0C37     		adds	r7, r7, #12
 1215 002c BD46     		mov	sp, r7
 1216              		@ sp needed
ARM GAS  C:\msys64\tmp\cc82fx43.s 			page 22


 1217 002e 80BC     		pop	{r7}
 1218 0030 7047     		bx	lr
 1220              		.section	.text.TIM_OCStructInit,"ax",%progbits
 1221              		.align	1
 1222              		.global	TIM_OCStructInit
 1223              		.syntax unified
 1224              		.thumb
 1225              		.thumb_func
 1226              		.fpu softvfp
 1228              	TIM_OCStructInit:
 1229              		@ args = 0, pretend = 0, frame = 8
 1230              		@ frame_needed = 1, uses_anonymous_args = 0
 1231              		@ link register save eliminated.
 1232 0000 80B4     		push	{r7}
 1233 0002 83B0     		sub	sp, sp, #12
 1234 0004 00AF     		add	r7, sp, #0
 1235 0006 7860     		str	r0, [r7, #4]
 1236 0008 7B68     		ldr	r3, [r7, #4]
 1237 000a 0022     		movs	r2, #0
 1238 000c 1A80     		strh	r2, [r3]	@ movhi
 1239 000e 7B68     		ldr	r3, [r7, #4]
 1240 0010 0022     		movs	r2, #0
 1241 0012 5A80     		strh	r2, [r3, #2]	@ movhi
 1242 0014 7B68     		ldr	r3, [r7, #4]
 1243 0016 0022     		movs	r2, #0
 1244 0018 9A80     		strh	r2, [r3, #4]	@ movhi
 1245 001a 7B68     		ldr	r3, [r7, #4]
 1246 001c 0022     		movs	r2, #0
 1247 001e DA80     		strh	r2, [r3, #6]	@ movhi
 1248 0020 7B68     		ldr	r3, [r7, #4]
 1249 0022 0022     		movs	r2, #0
 1250 0024 1A81     		strh	r2, [r3, #8]	@ movhi
 1251 0026 7B68     		ldr	r3, [r7, #4]
 1252 0028 0022     		movs	r2, #0
 1253 002a 5A81     		strh	r2, [r3, #10]	@ movhi
 1254 002c 7B68     		ldr	r3, [r7, #4]
 1255 002e 0022     		movs	r2, #0
 1256 0030 9A81     		strh	r2, [r3, #12]	@ movhi
 1257 0032 7B68     		ldr	r3, [r7, #4]
 1258 0034 0022     		movs	r2, #0
 1259 0036 DA81     		strh	r2, [r3, #14]	@ movhi
 1260 0038 00BF     		nop
 1261 003a 0C37     		adds	r7, r7, #12
 1262 003c BD46     		mov	sp, r7
 1263              		@ sp needed
 1264 003e 80BC     		pop	{r7}
 1265 0040 7047     		bx	lr
 1267              		.section	.text.TIM_ICStructInit,"ax",%progbits
 1268              		.align	1
 1269              		.global	TIM_ICStructInit
 1270              		.syntax unified
 1271              		.thumb
 1272              		.thumb_func
 1273              		.fpu softvfp
 1275              	TIM_ICStructInit:
 1276              		@ args = 0, pretend = 0, frame = 8
 1277              		@ frame_needed = 1, uses_anonymous_args = 0
ARM GAS  C:\msys64\tmp\cc82fx43.s 			page 23


 1278              		@ link register save eliminated.
 1279 0000 80B4     		push	{r7}
 1280 0002 83B0     		sub	sp, sp, #12
 1281 0004 00AF     		add	r7, sp, #0
 1282 0006 7860     		str	r0, [r7, #4]
 1283 0008 7B68     		ldr	r3, [r7, #4]
 1284 000a 0022     		movs	r2, #0
 1285 000c 1A80     		strh	r2, [r3]	@ movhi
 1286 000e 7B68     		ldr	r3, [r7, #4]
 1287 0010 0022     		movs	r2, #0
 1288 0012 5A80     		strh	r2, [r3, #2]	@ movhi
 1289 0014 7B68     		ldr	r3, [r7, #4]
 1290 0016 0122     		movs	r2, #1
 1291 0018 9A80     		strh	r2, [r3, #4]	@ movhi
 1292 001a 7B68     		ldr	r3, [r7, #4]
 1293 001c 0022     		movs	r2, #0
 1294 001e DA80     		strh	r2, [r3, #6]	@ movhi
 1295 0020 7B68     		ldr	r3, [r7, #4]
 1296 0022 0022     		movs	r2, #0
 1297 0024 1A81     		strh	r2, [r3, #8]	@ movhi
 1298 0026 00BF     		nop
 1299 0028 0C37     		adds	r7, r7, #12
 1300 002a BD46     		mov	sp, r7
 1301              		@ sp needed
 1302 002c 80BC     		pop	{r7}
 1303 002e 7047     		bx	lr
 1305              		.section	.text.TIM_BDTRStructInit,"ax",%progbits
 1306              		.align	1
 1307              		.global	TIM_BDTRStructInit
 1308              		.syntax unified
 1309              		.thumb
 1310              		.thumb_func
 1311              		.fpu softvfp
 1313              	TIM_BDTRStructInit:
 1314              		@ args = 0, pretend = 0, frame = 8
 1315              		@ frame_needed = 1, uses_anonymous_args = 0
 1316              		@ link register save eliminated.
 1317 0000 80B4     		push	{r7}
 1318 0002 83B0     		sub	sp, sp, #12
 1319 0004 00AF     		add	r7, sp, #0
 1320 0006 7860     		str	r0, [r7, #4]
 1321 0008 7B68     		ldr	r3, [r7, #4]
 1322 000a 0022     		movs	r2, #0
 1323 000c 1A80     		strh	r2, [r3]	@ movhi
 1324 000e 7B68     		ldr	r3, [r7, #4]
 1325 0010 0022     		movs	r2, #0
 1326 0012 5A80     		strh	r2, [r3, #2]	@ movhi
 1327 0014 7B68     		ldr	r3, [r7, #4]
 1328 0016 0022     		movs	r2, #0
 1329 0018 9A80     		strh	r2, [r3, #4]	@ movhi
 1330 001a 7B68     		ldr	r3, [r7, #4]
 1331 001c 0022     		movs	r2, #0
 1332 001e DA80     		strh	r2, [r3, #6]	@ movhi
 1333 0020 7B68     		ldr	r3, [r7, #4]
 1334 0022 0022     		movs	r2, #0
 1335 0024 1A81     		strh	r2, [r3, #8]	@ movhi
 1336 0026 7B68     		ldr	r3, [r7, #4]
ARM GAS  C:\msys64\tmp\cc82fx43.s 			page 24


 1337 0028 0022     		movs	r2, #0
 1338 002a 5A81     		strh	r2, [r3, #10]	@ movhi
 1339 002c 7B68     		ldr	r3, [r7, #4]
 1340 002e 0022     		movs	r2, #0
 1341 0030 9A81     		strh	r2, [r3, #12]	@ movhi
 1342 0032 00BF     		nop
 1343 0034 0C37     		adds	r7, r7, #12
 1344 0036 BD46     		mov	sp, r7
 1345              		@ sp needed
 1346 0038 80BC     		pop	{r7}
 1347 003a 7047     		bx	lr
 1349              		.section	.text.TIM_Cmd,"ax",%progbits
 1350              		.align	1
 1351              		.global	TIM_Cmd
 1352              		.syntax unified
 1353              		.thumb
 1354              		.thumb_func
 1355              		.fpu softvfp
 1357              	TIM_Cmd:
 1358              		@ args = 0, pretend = 0, frame = 8
 1359              		@ frame_needed = 1, uses_anonymous_args = 0
 1360              		@ link register save eliminated.
 1361 0000 80B4     		push	{r7}
 1362 0002 83B0     		sub	sp, sp, #12
 1363 0004 00AF     		add	r7, sp, #0
 1364 0006 7860     		str	r0, [r7, #4]
 1365 0008 0B46     		mov	r3, r1
 1366 000a FB70     		strb	r3, [r7, #3]
 1367 000c FB78     		ldrb	r3, [r7, #3]	@ zero_extendqisi2
 1368 000e 002B     		cmp	r3, #0
 1369 0010 08D0     		beq	.L70
 1370 0012 7B68     		ldr	r3, [r7, #4]
 1371 0014 1B88     		ldrh	r3, [r3]	@ movhi
 1372 0016 9BB2     		uxth	r3, r3
 1373 0018 43F00103 		orr	r3, r3, #1
 1374 001c 9AB2     		uxth	r2, r3
 1375 001e 7B68     		ldr	r3, [r7, #4]
 1376 0020 1A80     		strh	r2, [r3]	@ movhi
 1377 0022 07E0     		b	.L72
 1378              	.L70:
 1379 0024 7B68     		ldr	r3, [r7, #4]
 1380 0026 1B88     		ldrh	r3, [r3]	@ movhi
 1381 0028 9BB2     		uxth	r3, r3
 1382 002a 23F00103 		bic	r3, r3, #1
 1383 002e 9AB2     		uxth	r2, r3
 1384 0030 7B68     		ldr	r3, [r7, #4]
 1385 0032 1A80     		strh	r2, [r3]	@ movhi
 1386              	.L72:
 1387 0034 00BF     		nop
 1388 0036 0C37     		adds	r7, r7, #12
 1389 0038 BD46     		mov	sp, r7
 1390              		@ sp needed
 1391 003a 80BC     		pop	{r7}
 1392 003c 7047     		bx	lr
 1394              		.section	.text.TIM_CtrlPWMOutputs,"ax",%progbits
 1395              		.align	1
 1396              		.global	TIM_CtrlPWMOutputs
ARM GAS  C:\msys64\tmp\cc82fx43.s 			page 25


 1397              		.syntax unified
 1398              		.thumb
 1399              		.thumb_func
 1400              		.fpu softvfp
 1402              	TIM_CtrlPWMOutputs:
 1403              		@ args = 0, pretend = 0, frame = 8
 1404              		@ frame_needed = 1, uses_anonymous_args = 0
 1405              		@ link register save eliminated.
 1406 0000 80B4     		push	{r7}
 1407 0002 83B0     		sub	sp, sp, #12
 1408 0004 00AF     		add	r7, sp, #0
 1409 0006 7860     		str	r0, [r7, #4]
 1410 0008 0B46     		mov	r3, r1
 1411 000a FB70     		strb	r3, [r7, #3]
 1412 000c FB78     		ldrb	r3, [r7, #3]	@ zero_extendqisi2
 1413 000e 002B     		cmp	r3, #0
 1414 0010 0CD0     		beq	.L74
 1415 0012 7B68     		ldr	r3, [r7, #4]
 1416 0014 B3F84430 		ldrh	r3, [r3, #68]	@ movhi
 1417 0018 9BB2     		uxth	r3, r3
 1418 001a 6FEA4343 		mvn	r3, r3, lsl #17
 1419 001e 6FEA5343 		mvn	r3, r3, lsr #17
 1420 0022 9AB2     		uxth	r2, r3
 1421 0024 7B68     		ldr	r3, [r7, #4]
 1422 0026 A3F84420 		strh	r2, [r3, #68]	@ movhi
 1423 002a 09E0     		b	.L76
 1424              	.L74:
 1425 002c 7B68     		ldr	r3, [r7, #4]
 1426 002e B3F84430 		ldrh	r3, [r3, #68]	@ movhi
 1427 0032 9BB2     		uxth	r3, r3
 1428 0034 C3F30E03 		ubfx	r3, r3, #0, #15
 1429 0038 9AB2     		uxth	r2, r3
 1430 003a 7B68     		ldr	r3, [r7, #4]
 1431 003c A3F84420 		strh	r2, [r3, #68]	@ movhi
 1432              	.L76:
 1433 0040 00BF     		nop
 1434 0042 0C37     		adds	r7, r7, #12
 1435 0044 BD46     		mov	sp, r7
 1436              		@ sp needed
 1437 0046 80BC     		pop	{r7}
 1438 0048 7047     		bx	lr
 1440              		.section	.text.TIM_ITConfig,"ax",%progbits
 1441              		.align	1
 1442              		.global	TIM_ITConfig
 1443              		.syntax unified
 1444              		.thumb
 1445              		.thumb_func
 1446              		.fpu softvfp
 1448              	TIM_ITConfig:
 1449              		@ args = 0, pretend = 0, frame = 8
 1450              		@ frame_needed = 1, uses_anonymous_args = 0
 1451              		@ link register save eliminated.
 1452 0000 80B4     		push	{r7}
 1453 0002 83B0     		sub	sp, sp, #12
 1454 0004 00AF     		add	r7, sp, #0
 1455 0006 7860     		str	r0, [r7, #4]
 1456 0008 0B46     		mov	r3, r1
ARM GAS  C:\msys64\tmp\cc82fx43.s 			page 26


 1457 000a 7B80     		strh	r3, [r7, #2]	@ movhi
 1458 000c 1346     		mov	r3, r2
 1459 000e 7B70     		strb	r3, [r7, #1]
 1460 0010 7B78     		ldrb	r3, [r7, #1]	@ zero_extendqisi2
 1461 0012 002B     		cmp	r3, #0
 1462 0014 08D0     		beq	.L78
 1463 0016 7B68     		ldr	r3, [r7, #4]
 1464 0018 9B89     		ldrh	r3, [r3, #12]	@ movhi
 1465 001a 9AB2     		uxth	r2, r3
 1466 001c 7B88     		ldrh	r3, [r7, #2]	@ movhi
 1467 001e 1343     		orrs	r3, r3, r2
 1468 0020 9AB2     		uxth	r2, r3
 1469 0022 7B68     		ldr	r3, [r7, #4]
 1470 0024 9A81     		strh	r2, [r3, #12]	@ movhi
 1471 0026 09E0     		b	.L80
 1472              	.L78:
 1473 0028 7B68     		ldr	r3, [r7, #4]
 1474 002a 9B89     		ldrh	r3, [r3, #12]	@ movhi
 1475 002c 9AB2     		uxth	r2, r3
 1476 002e 7B88     		ldrh	r3, [r7, #2]	@ movhi
 1477 0030 DB43     		mvns	r3, r3
 1478 0032 9BB2     		uxth	r3, r3
 1479 0034 1340     		ands	r3, r3, r2
 1480 0036 9AB2     		uxth	r2, r3
 1481 0038 7B68     		ldr	r3, [r7, #4]
 1482 003a 9A81     		strh	r2, [r3, #12]	@ movhi
 1483              	.L80:
 1484 003c 00BF     		nop
 1485 003e 0C37     		adds	r7, r7, #12
 1486 0040 BD46     		mov	sp, r7
 1487              		@ sp needed
 1488 0042 80BC     		pop	{r7}
 1489 0044 7047     		bx	lr
 1491              		.section	.text.TIM_GenerateEvent,"ax",%progbits
 1492              		.align	1
 1493              		.global	TIM_GenerateEvent
 1494              		.syntax unified
 1495              		.thumb
 1496              		.thumb_func
 1497              		.fpu softvfp
 1499              	TIM_GenerateEvent:
 1500              		@ args = 0, pretend = 0, frame = 8
 1501              		@ frame_needed = 1, uses_anonymous_args = 0
 1502              		@ link register save eliminated.
 1503 0000 80B4     		push	{r7}
 1504 0002 83B0     		sub	sp, sp, #12
 1505 0004 00AF     		add	r7, sp, #0
 1506 0006 7860     		str	r0, [r7, #4]
 1507 0008 0B46     		mov	r3, r1
 1508 000a 7B80     		strh	r3, [r7, #2]	@ movhi
 1509 000c 7B68     		ldr	r3, [r7, #4]
 1510 000e 7A88     		ldrh	r2, [r7, #2]	@ movhi
 1511 0010 9A82     		strh	r2, [r3, #20]	@ movhi
 1512 0012 00BF     		nop
 1513 0014 0C37     		adds	r7, r7, #12
 1514 0016 BD46     		mov	sp, r7
 1515              		@ sp needed
ARM GAS  C:\msys64\tmp\cc82fx43.s 			page 27


 1516 0018 80BC     		pop	{r7}
 1517 001a 7047     		bx	lr
 1519              		.section	.text.TIM_DMAConfig,"ax",%progbits
 1520              		.align	1
 1521              		.global	TIM_DMAConfig
 1522              		.syntax unified
 1523              		.thumb
 1524              		.thumb_func
 1525              		.fpu softvfp
 1527              	TIM_DMAConfig:
 1528              		@ args = 0, pretend = 0, frame = 8
 1529              		@ frame_needed = 1, uses_anonymous_args = 0
 1530              		@ link register save eliminated.
 1531 0000 80B4     		push	{r7}
 1532 0002 83B0     		sub	sp, sp, #12
 1533 0004 00AF     		add	r7, sp, #0
 1534 0006 7860     		str	r0, [r7, #4]
 1535 0008 0B46     		mov	r3, r1
 1536 000a 7B80     		strh	r3, [r7, #2]	@ movhi
 1537 000c 1346     		mov	r3, r2	@ movhi
 1538 000e 3B80     		strh	r3, [r7]	@ movhi
 1539 0010 7A88     		ldrh	r2, [r7, #2]	@ movhi
 1540 0012 3B88     		ldrh	r3, [r7]	@ movhi
 1541 0014 1343     		orrs	r3, r3, r2
 1542 0016 9AB2     		uxth	r2, r3
 1543 0018 7B68     		ldr	r3, [r7, #4]
 1544 001a A3F84820 		strh	r2, [r3, #72]	@ movhi
 1545 001e 00BF     		nop
 1546 0020 0C37     		adds	r7, r7, #12
 1547 0022 BD46     		mov	sp, r7
 1548              		@ sp needed
 1549 0024 80BC     		pop	{r7}
 1550 0026 7047     		bx	lr
 1552              		.section	.text.TIM_DMACmd,"ax",%progbits
 1553              		.align	1
 1554              		.global	TIM_DMACmd
 1555              		.syntax unified
 1556              		.thumb
 1557              		.thumb_func
 1558              		.fpu softvfp
 1560              	TIM_DMACmd:
 1561              		@ args = 0, pretend = 0, frame = 8
 1562              		@ frame_needed = 1, uses_anonymous_args = 0
 1563              		@ link register save eliminated.
 1564 0000 80B4     		push	{r7}
 1565 0002 83B0     		sub	sp, sp, #12
 1566 0004 00AF     		add	r7, sp, #0
 1567 0006 7860     		str	r0, [r7, #4]
 1568 0008 0B46     		mov	r3, r1
 1569 000a 7B80     		strh	r3, [r7, #2]	@ movhi
 1570 000c 1346     		mov	r3, r2
 1571 000e 7B70     		strb	r3, [r7, #1]
 1572 0010 7B78     		ldrb	r3, [r7, #1]	@ zero_extendqisi2
 1573 0012 002B     		cmp	r3, #0
 1574 0014 08D0     		beq	.L84
 1575 0016 7B68     		ldr	r3, [r7, #4]
 1576 0018 9B89     		ldrh	r3, [r3, #12]	@ movhi
ARM GAS  C:\msys64\tmp\cc82fx43.s 			page 28


 1577 001a 9AB2     		uxth	r2, r3
 1578 001c 7B88     		ldrh	r3, [r7, #2]	@ movhi
 1579 001e 1343     		orrs	r3, r3, r2
 1580 0020 9AB2     		uxth	r2, r3
 1581 0022 7B68     		ldr	r3, [r7, #4]
 1582 0024 9A81     		strh	r2, [r3, #12]	@ movhi
 1583 0026 09E0     		b	.L86
 1584              	.L84:
 1585 0028 7B68     		ldr	r3, [r7, #4]
 1586 002a 9B89     		ldrh	r3, [r3, #12]	@ movhi
 1587 002c 9AB2     		uxth	r2, r3
 1588 002e 7B88     		ldrh	r3, [r7, #2]	@ movhi
 1589 0030 DB43     		mvns	r3, r3
 1590 0032 9BB2     		uxth	r3, r3
 1591 0034 1340     		ands	r3, r3, r2
 1592 0036 9AB2     		uxth	r2, r3
 1593 0038 7B68     		ldr	r3, [r7, #4]
 1594 003a 9A81     		strh	r2, [r3, #12]	@ movhi
 1595              	.L86:
 1596 003c 00BF     		nop
 1597 003e 0C37     		adds	r7, r7, #12
 1598 0040 BD46     		mov	sp, r7
 1599              		@ sp needed
 1600 0042 80BC     		pop	{r7}
 1601 0044 7047     		bx	lr
 1603              		.section	.text.TIM_InternalClockConfig,"ax",%progbits
 1604              		.align	1
 1605              		.global	TIM_InternalClockConfig
 1606              		.syntax unified
 1607              		.thumb
 1608              		.thumb_func
 1609              		.fpu softvfp
 1611              	TIM_InternalClockConfig:
 1612              		@ args = 0, pretend = 0, frame = 8
 1613              		@ frame_needed = 1, uses_anonymous_args = 0
 1614              		@ link register save eliminated.
 1615 0000 80B4     		push	{r7}
 1616 0002 83B0     		sub	sp, sp, #12
 1617 0004 00AF     		add	r7, sp, #0
 1618 0006 7860     		str	r0, [r7, #4]
 1619 0008 7B68     		ldr	r3, [r7, #4]
 1620 000a 1B89     		ldrh	r3, [r3, #8]	@ movhi
 1621 000c 9BB2     		uxth	r3, r3
 1622 000e 23F00703 		bic	r3, r3, #7
 1623 0012 9AB2     		uxth	r2, r3
 1624 0014 7B68     		ldr	r3, [r7, #4]
 1625 0016 1A81     		strh	r2, [r3, #8]	@ movhi
 1626 0018 00BF     		nop
 1627 001a 0C37     		adds	r7, r7, #12
 1628 001c BD46     		mov	sp, r7
 1629              		@ sp needed
 1630 001e 80BC     		pop	{r7}
 1631 0020 7047     		bx	lr
 1633              		.section	.text.TIM_ITRxExternalClockConfig,"ax",%progbits
 1634              		.align	1
 1635              		.global	TIM_ITRxExternalClockConfig
 1636              		.syntax unified
ARM GAS  C:\msys64\tmp\cc82fx43.s 			page 29


 1637              		.thumb
 1638              		.thumb_func
 1639              		.fpu softvfp
 1641              	TIM_ITRxExternalClockConfig:
 1642              		@ args = 0, pretend = 0, frame = 8
 1643              		@ frame_needed = 1, uses_anonymous_args = 0
 1644 0000 80B5     		push	{r7, lr}
 1645 0002 82B0     		sub	sp, sp, #8
 1646 0004 00AF     		add	r7, sp, #0
 1647 0006 7860     		str	r0, [r7, #4]
 1648 0008 0B46     		mov	r3, r1
 1649 000a 7B80     		strh	r3, [r7, #2]	@ movhi
 1650 000c 7B88     		ldrh	r3, [r7, #2]
 1651 000e 1946     		mov	r1, r3
 1652 0010 7868     		ldr	r0, [r7, #4]
 1653 0012 FFF7FEFF 		bl	TIM_SelectInputTrigger
 1654 0016 7B68     		ldr	r3, [r7, #4]
 1655 0018 1B89     		ldrh	r3, [r3, #8]	@ movhi
 1656 001a 9BB2     		uxth	r3, r3
 1657 001c 43F00703 		orr	r3, r3, #7
 1658 0020 9AB2     		uxth	r2, r3
 1659 0022 7B68     		ldr	r3, [r7, #4]
 1660 0024 1A81     		strh	r2, [r3, #8]	@ movhi
 1661 0026 00BF     		nop
 1662 0028 0837     		adds	r7, r7, #8
 1663 002a BD46     		mov	sp, r7
 1664              		@ sp needed
 1665 002c 80BD     		pop	{r7, pc}
 1667              		.section	.text.TIM_TIxExternalClockConfig,"ax",%progbits
 1668              		.align	1
 1669              		.global	TIM_TIxExternalClockConfig
 1670              		.syntax unified
 1671              		.thumb
 1672              		.thumb_func
 1673              		.fpu softvfp
 1675              	TIM_TIxExternalClockConfig:
 1676              		@ args = 0, pretend = 0, frame = 16
 1677              		@ frame_needed = 1, uses_anonymous_args = 0
 1678 0000 80B5     		push	{r7, lr}
 1679 0002 84B0     		sub	sp, sp, #16
 1680 0004 00AF     		add	r7, sp, #0
 1681 0006 F860     		str	r0, [r7, #12]
 1682 0008 0846     		mov	r0, r1
 1683 000a 1146     		mov	r1, r2
 1684 000c 1A46     		mov	r2, r3
 1685 000e 0346     		mov	r3, r0	@ movhi
 1686 0010 7B81     		strh	r3, [r7, #10]	@ movhi
 1687 0012 0B46     		mov	r3, r1	@ movhi
 1688 0014 3B81     		strh	r3, [r7, #8]	@ movhi
 1689 0016 1346     		mov	r3, r2	@ movhi
 1690 0018 FB80     		strh	r3, [r7, #6]	@ movhi
 1691 001a 7B89     		ldrh	r3, [r7, #10]
 1692 001c 602B     		cmp	r3, #96
 1693 001e 06D1     		bne	.L90
 1694 0020 FB88     		ldrh	r3, [r7, #6]
 1695 0022 3989     		ldrh	r1, [r7, #8]
 1696 0024 0122     		movs	r2, #1
ARM GAS  C:\msys64\tmp\cc82fx43.s 			page 30


 1697 0026 F868     		ldr	r0, [r7, #12]
 1698 0028 FFF7FEFF 		bl	TI2_Config
 1699 002c 05E0     		b	.L91
 1700              	.L90:
 1701 002e FB88     		ldrh	r3, [r7, #6]
 1702 0030 3989     		ldrh	r1, [r7, #8]
 1703 0032 0122     		movs	r2, #1
 1704 0034 F868     		ldr	r0, [r7, #12]
 1705 0036 FFF7FEFF 		bl	TI1_Config
 1706              	.L91:
 1707 003a 7B89     		ldrh	r3, [r7, #10]
 1708 003c 1946     		mov	r1, r3
 1709 003e F868     		ldr	r0, [r7, #12]
 1710 0040 FFF7FEFF 		bl	TIM_SelectInputTrigger
 1711 0044 FB68     		ldr	r3, [r7, #12]
 1712 0046 1B89     		ldrh	r3, [r3, #8]	@ movhi
 1713 0048 9BB2     		uxth	r3, r3
 1714 004a 43F00703 		orr	r3, r3, #7
 1715 004e 9AB2     		uxth	r2, r3
 1716 0050 FB68     		ldr	r3, [r7, #12]
 1717 0052 1A81     		strh	r2, [r3, #8]	@ movhi
 1718 0054 00BF     		nop
 1719 0056 1037     		adds	r7, r7, #16
 1720 0058 BD46     		mov	sp, r7
 1721              		@ sp needed
 1722 005a 80BD     		pop	{r7, pc}
 1724              		.section	.text.TIM_ETRClockMode1Config,"ax",%progbits
 1725              		.align	1
 1726              		.global	TIM_ETRClockMode1Config
 1727              		.syntax unified
 1728              		.thumb
 1729              		.thumb_func
 1730              		.fpu softvfp
 1732              	TIM_ETRClockMode1Config:
 1733              		@ args = 0, pretend = 0, frame = 24
 1734              		@ frame_needed = 1, uses_anonymous_args = 0
 1735 0000 80B5     		push	{r7, lr}
 1736 0002 86B0     		sub	sp, sp, #24
 1737 0004 00AF     		add	r7, sp, #0
 1738 0006 F860     		str	r0, [r7, #12]
 1739 0008 0846     		mov	r0, r1
 1740 000a 1146     		mov	r1, r2
 1741 000c 1A46     		mov	r2, r3
 1742 000e 0346     		mov	r3, r0	@ movhi
 1743 0010 7B81     		strh	r3, [r7, #10]	@ movhi
 1744 0012 0B46     		mov	r3, r1	@ movhi
 1745 0014 3B81     		strh	r3, [r7, #8]	@ movhi
 1746 0016 1346     		mov	r3, r2	@ movhi
 1747 0018 FB80     		strh	r3, [r7, #6]	@ movhi
 1748 001a 0023     		movs	r3, #0
 1749 001c FB82     		strh	r3, [r7, #22]	@ movhi
 1750 001e FB88     		ldrh	r3, [r7, #6]
 1751 0020 3A89     		ldrh	r2, [r7, #8]
 1752 0022 7989     		ldrh	r1, [r7, #10]
 1753 0024 F868     		ldr	r0, [r7, #12]
 1754 0026 FFF7FEFF 		bl	TIM_ETRConfig
 1755 002a FB68     		ldr	r3, [r7, #12]
ARM GAS  C:\msys64\tmp\cc82fx43.s 			page 31


 1756 002c 1B89     		ldrh	r3, [r3, #8]	@ movhi
 1757 002e FB82     		strh	r3, [r7, #22]	@ movhi
 1758 0030 FB8A     		ldrh	r3, [r7, #22]	@ movhi
 1759 0032 23F00703 		bic	r3, r3, #7
 1760 0036 FB82     		strh	r3, [r7, #22]	@ movhi
 1761 0038 FB8A     		ldrh	r3, [r7, #22]	@ movhi
 1762 003a 43F00703 		orr	r3, r3, #7
 1763 003e FB82     		strh	r3, [r7, #22]	@ movhi
 1764 0040 FB8A     		ldrh	r3, [r7, #22]	@ movhi
 1765 0042 23F07003 		bic	r3, r3, #112
 1766 0046 FB82     		strh	r3, [r7, #22]	@ movhi
 1767 0048 FB8A     		ldrh	r3, [r7, #22]	@ movhi
 1768 004a 43F07003 		orr	r3, r3, #112
 1769 004e FB82     		strh	r3, [r7, #22]	@ movhi
 1770 0050 FB68     		ldr	r3, [r7, #12]
 1771 0052 FA8A     		ldrh	r2, [r7, #22]	@ movhi
 1772 0054 1A81     		strh	r2, [r3, #8]	@ movhi
 1773 0056 00BF     		nop
 1774 0058 1837     		adds	r7, r7, #24
 1775 005a BD46     		mov	sp, r7
 1776              		@ sp needed
 1777 005c 80BD     		pop	{r7, pc}
 1779              		.section	.text.TIM_ETRClockMode2Config,"ax",%progbits
 1780              		.align	1
 1781              		.global	TIM_ETRClockMode2Config
 1782              		.syntax unified
 1783              		.thumb
 1784              		.thumb_func
 1785              		.fpu softvfp
 1787              	TIM_ETRClockMode2Config:
 1788              		@ args = 0, pretend = 0, frame = 16
 1789              		@ frame_needed = 1, uses_anonymous_args = 0
 1790 0000 80B5     		push	{r7, lr}
 1791 0002 84B0     		sub	sp, sp, #16
 1792 0004 00AF     		add	r7, sp, #0
 1793 0006 F860     		str	r0, [r7, #12]
 1794 0008 0846     		mov	r0, r1
 1795 000a 1146     		mov	r1, r2
 1796 000c 1A46     		mov	r2, r3
 1797 000e 0346     		mov	r3, r0	@ movhi
 1798 0010 7B81     		strh	r3, [r7, #10]	@ movhi
 1799 0012 0B46     		mov	r3, r1	@ movhi
 1800 0014 3B81     		strh	r3, [r7, #8]	@ movhi
 1801 0016 1346     		mov	r3, r2	@ movhi
 1802 0018 FB80     		strh	r3, [r7, #6]	@ movhi
 1803 001a FB88     		ldrh	r3, [r7, #6]
 1804 001c 3A89     		ldrh	r2, [r7, #8]
 1805 001e 7989     		ldrh	r1, [r7, #10]
 1806 0020 F868     		ldr	r0, [r7, #12]
 1807 0022 FFF7FEFF 		bl	TIM_ETRConfig
 1808 0026 FB68     		ldr	r3, [r7, #12]
 1809 0028 1B89     		ldrh	r3, [r3, #8]	@ movhi
 1810 002a 9BB2     		uxth	r3, r3
 1811 002c 43F48043 		orr	r3, r3, #16384
 1812 0030 9AB2     		uxth	r2, r3
 1813 0032 FB68     		ldr	r3, [r7, #12]
 1814 0034 1A81     		strh	r2, [r3, #8]	@ movhi
ARM GAS  C:\msys64\tmp\cc82fx43.s 			page 32


 1815 0036 00BF     		nop
 1816 0038 1037     		adds	r7, r7, #16
 1817 003a BD46     		mov	sp, r7
 1818              		@ sp needed
 1819 003c 80BD     		pop	{r7, pc}
 1821              		.section	.text.TIM_ETRConfig,"ax",%progbits
 1822              		.align	1
 1823              		.global	TIM_ETRConfig
 1824              		.syntax unified
 1825              		.thumb
 1826              		.thumb_func
 1827              		.fpu softvfp
 1829              	TIM_ETRConfig:
 1830              		@ args = 0, pretend = 0, frame = 24
 1831              		@ frame_needed = 1, uses_anonymous_args = 0
 1832              		@ link register save eliminated.
 1833 0000 80B4     		push	{r7}
 1834 0002 87B0     		sub	sp, sp, #28
 1835 0004 00AF     		add	r7, sp, #0
 1836 0006 F860     		str	r0, [r7, #12]
 1837 0008 0846     		mov	r0, r1
 1838 000a 1146     		mov	r1, r2
 1839 000c 1A46     		mov	r2, r3
 1840 000e 0346     		mov	r3, r0	@ movhi
 1841 0010 7B81     		strh	r3, [r7, #10]	@ movhi
 1842 0012 0B46     		mov	r3, r1	@ movhi
 1843 0014 3B81     		strh	r3, [r7, #8]	@ movhi
 1844 0016 1346     		mov	r3, r2	@ movhi
 1845 0018 FB80     		strh	r3, [r7, #6]	@ movhi
 1846 001a 0023     		movs	r3, #0
 1847 001c FB82     		strh	r3, [r7, #22]	@ movhi
 1848 001e FB68     		ldr	r3, [r7, #12]
 1849 0020 1B89     		ldrh	r3, [r3, #8]	@ movhi
 1850 0022 FB82     		strh	r3, [r7, #22]	@ movhi
 1851 0024 FB8A     		ldrh	r3, [r7, #22]	@ movhi
 1852 0026 DBB2     		uxtb	r3, r3
 1853 0028 FB82     		strh	r3, [r7, #22]	@ movhi
 1854 002a FB88     		ldrh	r3, [r7, #6]	@ movhi
 1855 002c 1B02     		lsls	r3, r3, #8
 1856 002e 9AB2     		uxth	r2, r3
 1857 0030 3B89     		ldrh	r3, [r7, #8]	@ movhi
 1858 0032 1343     		orrs	r3, r3, r2
 1859 0034 9AB2     		uxth	r2, r3
 1860 0036 7B89     		ldrh	r3, [r7, #10]	@ movhi
 1861 0038 1343     		orrs	r3, r3, r2
 1862 003a 9AB2     		uxth	r2, r3
 1863 003c FB8A     		ldrh	r3, [r7, #22]	@ movhi
 1864 003e 1343     		orrs	r3, r3, r2
 1865 0040 FB82     		strh	r3, [r7, #22]	@ movhi
 1866 0042 FB68     		ldr	r3, [r7, #12]
 1867 0044 FA8A     		ldrh	r2, [r7, #22]	@ movhi
 1868 0046 1A81     		strh	r2, [r3, #8]	@ movhi
 1869 0048 00BF     		nop
 1870 004a 1C37     		adds	r7, r7, #28
 1871 004c BD46     		mov	sp, r7
 1872              		@ sp needed
 1873 004e 80BC     		pop	{r7}
ARM GAS  C:\msys64\tmp\cc82fx43.s 			page 33


 1874 0050 7047     		bx	lr
 1876              		.section	.text.TIM_PrescalerConfig,"ax",%progbits
 1877              		.align	1
 1878              		.global	TIM_PrescalerConfig
 1879              		.syntax unified
 1880              		.thumb
 1881              		.thumb_func
 1882              		.fpu softvfp
 1884              	TIM_PrescalerConfig:
 1885              		@ args = 0, pretend = 0, frame = 8
 1886              		@ frame_needed = 1, uses_anonymous_args = 0
 1887              		@ link register save eliminated.
 1888 0000 80B4     		push	{r7}
 1889 0002 83B0     		sub	sp, sp, #12
 1890 0004 00AF     		add	r7, sp, #0
 1891 0006 7860     		str	r0, [r7, #4]
 1892 0008 0B46     		mov	r3, r1
 1893 000a 7B80     		strh	r3, [r7, #2]	@ movhi
 1894 000c 1346     		mov	r3, r2	@ movhi
 1895 000e 3B80     		strh	r3, [r7]	@ movhi
 1896 0010 7B68     		ldr	r3, [r7, #4]
 1897 0012 7A88     		ldrh	r2, [r7, #2]	@ movhi
 1898 0014 1A85     		strh	r2, [r3, #40]	@ movhi
 1899 0016 7B68     		ldr	r3, [r7, #4]
 1900 0018 3A88     		ldrh	r2, [r7]	@ movhi
 1901 001a 9A82     		strh	r2, [r3, #20]	@ movhi
 1902 001c 00BF     		nop
 1903 001e 0C37     		adds	r7, r7, #12
 1904 0020 BD46     		mov	sp, r7
 1905              		@ sp needed
 1906 0022 80BC     		pop	{r7}
 1907 0024 7047     		bx	lr
 1909              		.section	.text.TIM_CounterModeConfig,"ax",%progbits
 1910              		.align	1
 1911              		.global	TIM_CounterModeConfig
 1912              		.syntax unified
 1913              		.thumb
 1914              		.thumb_func
 1915              		.fpu softvfp
 1917              	TIM_CounterModeConfig:
 1918              		@ args = 0, pretend = 0, frame = 16
 1919              		@ frame_needed = 1, uses_anonymous_args = 0
 1920              		@ link register save eliminated.
 1921 0000 80B4     		push	{r7}
 1922 0002 85B0     		sub	sp, sp, #20
 1923 0004 00AF     		add	r7, sp, #0
 1924 0006 7860     		str	r0, [r7, #4]
 1925 0008 0B46     		mov	r3, r1
 1926 000a 7B80     		strh	r3, [r7, #2]	@ movhi
 1927 000c 0023     		movs	r3, #0
 1928 000e FB81     		strh	r3, [r7, #14]	@ movhi
 1929 0010 7B68     		ldr	r3, [r7, #4]
 1930 0012 1B88     		ldrh	r3, [r3]	@ movhi
 1931 0014 FB81     		strh	r3, [r7, #14]	@ movhi
 1932 0016 FB89     		ldrh	r3, [r7, #14]	@ movhi
 1933 0018 23F07003 		bic	r3, r3, #112
 1934 001c FB81     		strh	r3, [r7, #14]	@ movhi
ARM GAS  C:\msys64\tmp\cc82fx43.s 			page 34


 1935 001e FA89     		ldrh	r2, [r7, #14]	@ movhi
 1936 0020 7B88     		ldrh	r3, [r7, #2]	@ movhi
 1937 0022 1343     		orrs	r3, r3, r2
 1938 0024 FB81     		strh	r3, [r7, #14]	@ movhi
 1939 0026 7B68     		ldr	r3, [r7, #4]
 1940 0028 FA89     		ldrh	r2, [r7, #14]	@ movhi
 1941 002a 1A80     		strh	r2, [r3]	@ movhi
 1942 002c 00BF     		nop
 1943 002e 1437     		adds	r7, r7, #20
 1944 0030 BD46     		mov	sp, r7
 1945              		@ sp needed
 1946 0032 80BC     		pop	{r7}
 1947 0034 7047     		bx	lr
 1949              		.section	.text.TIM_SelectInputTrigger,"ax",%progbits
 1950              		.align	1
 1951              		.global	TIM_SelectInputTrigger
 1952              		.syntax unified
 1953              		.thumb
 1954              		.thumb_func
 1955              		.fpu softvfp
 1957              	TIM_SelectInputTrigger:
 1958              		@ args = 0, pretend = 0, frame = 16
 1959              		@ frame_needed = 1, uses_anonymous_args = 0
 1960              		@ link register save eliminated.
 1961 0000 80B4     		push	{r7}
 1962 0002 85B0     		sub	sp, sp, #20
 1963 0004 00AF     		add	r7, sp, #0
 1964 0006 7860     		str	r0, [r7, #4]
 1965 0008 0B46     		mov	r3, r1
 1966 000a 7B80     		strh	r3, [r7, #2]	@ movhi
 1967 000c 0023     		movs	r3, #0
 1968 000e FB81     		strh	r3, [r7, #14]	@ movhi
 1969 0010 7B68     		ldr	r3, [r7, #4]
 1970 0012 1B89     		ldrh	r3, [r3, #8]	@ movhi
 1971 0014 FB81     		strh	r3, [r7, #14]	@ movhi
 1972 0016 FB89     		ldrh	r3, [r7, #14]	@ movhi
 1973 0018 23F07003 		bic	r3, r3, #112
 1974 001c FB81     		strh	r3, [r7, #14]	@ movhi
 1975 001e FA89     		ldrh	r2, [r7, #14]	@ movhi
 1976 0020 7B88     		ldrh	r3, [r7, #2]	@ movhi
 1977 0022 1343     		orrs	r3, r3, r2
 1978 0024 FB81     		strh	r3, [r7, #14]	@ movhi
 1979 0026 7B68     		ldr	r3, [r7, #4]
 1980 0028 FA89     		ldrh	r2, [r7, #14]	@ movhi
 1981 002a 1A81     		strh	r2, [r3, #8]	@ movhi
 1982 002c 00BF     		nop
 1983 002e 1437     		adds	r7, r7, #20
 1984 0030 BD46     		mov	sp, r7
 1985              		@ sp needed
 1986 0032 80BC     		pop	{r7}
 1987 0034 7047     		bx	lr
 1989              		.section	.text.TIM_EncoderInterfaceConfig,"ax",%progbits
 1990              		.align	1
 1991              		.global	TIM_EncoderInterfaceConfig
 1992              		.syntax unified
 1993              		.thumb
 1994              		.thumb_func
ARM GAS  C:\msys64\tmp\cc82fx43.s 			page 35


 1995              		.fpu softvfp
 1997              	TIM_EncoderInterfaceConfig:
 1998              		@ args = 0, pretend = 0, frame = 24
 1999              		@ frame_needed = 1, uses_anonymous_args = 0
 2000              		@ link register save eliminated.
 2001 0000 80B4     		push	{r7}
 2002 0002 87B0     		sub	sp, sp, #28
 2003 0004 00AF     		add	r7, sp, #0
 2004 0006 F860     		str	r0, [r7, #12]
 2005 0008 0846     		mov	r0, r1
 2006 000a 1146     		mov	r1, r2
 2007 000c 1A46     		mov	r2, r3
 2008 000e 0346     		mov	r3, r0	@ movhi
 2009 0010 7B81     		strh	r3, [r7, #10]	@ movhi
 2010 0012 0B46     		mov	r3, r1	@ movhi
 2011 0014 3B81     		strh	r3, [r7, #8]	@ movhi
 2012 0016 1346     		mov	r3, r2	@ movhi
 2013 0018 FB80     		strh	r3, [r7, #6]	@ movhi
 2014 001a 0023     		movs	r3, #0
 2015 001c FB82     		strh	r3, [r7, #22]	@ movhi
 2016 001e 0023     		movs	r3, #0
 2017 0020 BB82     		strh	r3, [r7, #20]	@ movhi
 2018 0022 0023     		movs	r3, #0
 2019 0024 7B82     		strh	r3, [r7, #18]	@ movhi
 2020 0026 FB68     		ldr	r3, [r7, #12]
 2021 0028 1B89     		ldrh	r3, [r3, #8]	@ movhi
 2022 002a FB82     		strh	r3, [r7, #22]	@ movhi
 2023 002c FB68     		ldr	r3, [r7, #12]
 2024 002e 1B8B     		ldrh	r3, [r3, #24]	@ movhi
 2025 0030 BB82     		strh	r3, [r7, #20]	@ movhi
 2026 0032 FB68     		ldr	r3, [r7, #12]
 2027 0034 1B8C     		ldrh	r3, [r3, #32]	@ movhi
 2028 0036 7B82     		strh	r3, [r7, #18]	@ movhi
 2029 0038 FB8A     		ldrh	r3, [r7, #22]	@ movhi
 2030 003a 23F00703 		bic	r3, r3, #7
 2031 003e FB82     		strh	r3, [r7, #22]	@ movhi
 2032 0040 FA8A     		ldrh	r2, [r7, #22]	@ movhi
 2033 0042 7B89     		ldrh	r3, [r7, #10]	@ movhi
 2034 0044 1343     		orrs	r3, r3, r2
 2035 0046 FB82     		strh	r3, [r7, #22]	@ movhi
 2036 0048 BB8A     		ldrh	r3, [r7, #20]	@ movhi
 2037 004a 23F44073 		bic	r3, r3, #768
 2038 004e 23F00303 		bic	r3, r3, #3
 2039 0052 BB82     		strh	r3, [r7, #20]	@ movhi
 2040 0054 BB8A     		ldrh	r3, [r7, #20]	@ movhi
 2041 0056 43F48073 		orr	r3, r3, #256
 2042 005a 43F00103 		orr	r3, r3, #1
 2043 005e BB82     		strh	r3, [r7, #20]	@ movhi
 2044 0060 7B8A     		ldrh	r3, [r7, #18]	@ movhi
 2045 0062 23F02203 		bic	r3, r3, #34
 2046 0066 7B82     		strh	r3, [r7, #18]	@ movhi
 2047 0068 FB88     		ldrh	r3, [r7, #6]	@ movhi
 2048 006a 1B01     		lsls	r3, r3, #4
 2049 006c 9AB2     		uxth	r2, r3
 2050 006e 3B89     		ldrh	r3, [r7, #8]	@ movhi
 2051 0070 1343     		orrs	r3, r3, r2
 2052 0072 9AB2     		uxth	r2, r3
ARM GAS  C:\msys64\tmp\cc82fx43.s 			page 36


 2053 0074 7B8A     		ldrh	r3, [r7, #18]	@ movhi
 2054 0076 1343     		orrs	r3, r3, r2
 2055 0078 7B82     		strh	r3, [r7, #18]	@ movhi
 2056 007a FB68     		ldr	r3, [r7, #12]
 2057 007c FA8A     		ldrh	r2, [r7, #22]	@ movhi
 2058 007e 1A81     		strh	r2, [r3, #8]	@ movhi
 2059 0080 FB68     		ldr	r3, [r7, #12]
 2060 0082 BA8A     		ldrh	r2, [r7, #20]	@ movhi
 2061 0084 1A83     		strh	r2, [r3, #24]	@ movhi
 2062 0086 FB68     		ldr	r3, [r7, #12]
 2063 0088 7A8A     		ldrh	r2, [r7, #18]	@ movhi
 2064 008a 1A84     		strh	r2, [r3, #32]	@ movhi
 2065 008c 00BF     		nop
 2066 008e 1C37     		adds	r7, r7, #28
 2067 0090 BD46     		mov	sp, r7
 2068              		@ sp needed
 2069 0092 80BC     		pop	{r7}
 2070 0094 7047     		bx	lr
 2072              		.section	.text.TIM_ForcedOC1Config,"ax",%progbits
 2073              		.align	1
 2074              		.global	TIM_ForcedOC1Config
 2075              		.syntax unified
 2076              		.thumb
 2077              		.thumb_func
 2078              		.fpu softvfp
 2080              	TIM_ForcedOC1Config:
 2081              		@ args = 0, pretend = 0, frame = 16
 2082              		@ frame_needed = 1, uses_anonymous_args = 0
 2083              		@ link register save eliminated.
 2084 0000 80B4     		push	{r7}
 2085 0002 85B0     		sub	sp, sp, #20
 2086 0004 00AF     		add	r7, sp, #0
 2087 0006 7860     		str	r0, [r7, #4]
 2088 0008 0B46     		mov	r3, r1
 2089 000a 7B80     		strh	r3, [r7, #2]	@ movhi
 2090 000c 0023     		movs	r3, #0
 2091 000e FB81     		strh	r3, [r7, #14]	@ movhi
 2092 0010 7B68     		ldr	r3, [r7, #4]
 2093 0012 1B8B     		ldrh	r3, [r3, #24]	@ movhi
 2094 0014 FB81     		strh	r3, [r7, #14]	@ movhi
 2095 0016 FB89     		ldrh	r3, [r7, #14]	@ movhi
 2096 0018 23F07003 		bic	r3, r3, #112
 2097 001c FB81     		strh	r3, [r7, #14]	@ movhi
 2098 001e FA89     		ldrh	r2, [r7, #14]	@ movhi
 2099 0020 7B88     		ldrh	r3, [r7, #2]	@ movhi
 2100 0022 1343     		orrs	r3, r3, r2
 2101 0024 FB81     		strh	r3, [r7, #14]	@ movhi
 2102 0026 7B68     		ldr	r3, [r7, #4]
 2103 0028 FA89     		ldrh	r2, [r7, #14]	@ movhi
 2104 002a 1A83     		strh	r2, [r3, #24]	@ movhi
 2105 002c 00BF     		nop
 2106 002e 1437     		adds	r7, r7, #20
 2107 0030 BD46     		mov	sp, r7
 2108              		@ sp needed
 2109 0032 80BC     		pop	{r7}
 2110 0034 7047     		bx	lr
 2112              		.section	.text.TIM_ForcedOC2Config,"ax",%progbits
ARM GAS  C:\msys64\tmp\cc82fx43.s 			page 37


 2113              		.align	1
 2114              		.global	TIM_ForcedOC2Config
 2115              		.syntax unified
 2116              		.thumb
 2117              		.thumb_func
 2118              		.fpu softvfp
 2120              	TIM_ForcedOC2Config:
 2121              		@ args = 0, pretend = 0, frame = 16
 2122              		@ frame_needed = 1, uses_anonymous_args = 0
 2123              		@ link register save eliminated.
 2124 0000 80B4     		push	{r7}
 2125 0002 85B0     		sub	sp, sp, #20
 2126 0004 00AF     		add	r7, sp, #0
 2127 0006 7860     		str	r0, [r7, #4]
 2128 0008 0B46     		mov	r3, r1
 2129 000a 7B80     		strh	r3, [r7, #2]	@ movhi
 2130 000c 0023     		movs	r3, #0
 2131 000e FB81     		strh	r3, [r7, #14]	@ movhi
 2132 0010 7B68     		ldr	r3, [r7, #4]
 2133 0012 1B8B     		ldrh	r3, [r3, #24]	@ movhi
 2134 0014 FB81     		strh	r3, [r7, #14]	@ movhi
 2135 0016 FB89     		ldrh	r3, [r7, #14]	@ movhi
 2136 0018 23F4E043 		bic	r3, r3, #28672
 2137 001c FB81     		strh	r3, [r7, #14]	@ movhi
 2138 001e 7B88     		ldrh	r3, [r7, #2]	@ movhi
 2139 0020 1B02     		lsls	r3, r3, #8
 2140 0022 9AB2     		uxth	r2, r3
 2141 0024 FB89     		ldrh	r3, [r7, #14]	@ movhi
 2142 0026 1343     		orrs	r3, r3, r2
 2143 0028 FB81     		strh	r3, [r7, #14]	@ movhi
 2144 002a 7B68     		ldr	r3, [r7, #4]
 2145 002c FA89     		ldrh	r2, [r7, #14]	@ movhi
 2146 002e 1A83     		strh	r2, [r3, #24]	@ movhi
 2147 0030 00BF     		nop
 2148 0032 1437     		adds	r7, r7, #20
 2149 0034 BD46     		mov	sp, r7
 2150              		@ sp needed
 2151 0036 80BC     		pop	{r7}
 2152 0038 7047     		bx	lr
 2154              		.section	.text.TIM_ForcedOC3Config,"ax",%progbits
 2155              		.align	1
 2156              		.global	TIM_ForcedOC3Config
 2157              		.syntax unified
 2158              		.thumb
 2159              		.thumb_func
 2160              		.fpu softvfp
 2162              	TIM_ForcedOC3Config:
 2163              		@ args = 0, pretend = 0, frame = 16
 2164              		@ frame_needed = 1, uses_anonymous_args = 0
 2165              		@ link register save eliminated.
 2166 0000 80B4     		push	{r7}
 2167 0002 85B0     		sub	sp, sp, #20
 2168 0004 00AF     		add	r7, sp, #0
 2169 0006 7860     		str	r0, [r7, #4]
 2170 0008 0B46     		mov	r3, r1
 2171 000a 7B80     		strh	r3, [r7, #2]	@ movhi
 2172 000c 0023     		movs	r3, #0
ARM GAS  C:\msys64\tmp\cc82fx43.s 			page 38


 2173 000e FB81     		strh	r3, [r7, #14]	@ movhi
 2174 0010 7B68     		ldr	r3, [r7, #4]
 2175 0012 9B8B     		ldrh	r3, [r3, #28]	@ movhi
 2176 0014 FB81     		strh	r3, [r7, #14]	@ movhi
 2177 0016 FB89     		ldrh	r3, [r7, #14]	@ movhi
 2178 0018 23F07003 		bic	r3, r3, #112
 2179 001c FB81     		strh	r3, [r7, #14]	@ movhi
 2180 001e FA89     		ldrh	r2, [r7, #14]	@ movhi
 2181 0020 7B88     		ldrh	r3, [r7, #2]	@ movhi
 2182 0022 1343     		orrs	r3, r3, r2
 2183 0024 FB81     		strh	r3, [r7, #14]	@ movhi
 2184 0026 7B68     		ldr	r3, [r7, #4]
 2185 0028 FA89     		ldrh	r2, [r7, #14]	@ movhi
 2186 002a 9A83     		strh	r2, [r3, #28]	@ movhi
 2187 002c 00BF     		nop
 2188 002e 1437     		adds	r7, r7, #20
 2189 0030 BD46     		mov	sp, r7
 2190              		@ sp needed
 2191 0032 80BC     		pop	{r7}
 2192 0034 7047     		bx	lr
 2194              		.section	.text.TIM_ForcedOC4Config,"ax",%progbits
 2195              		.align	1
 2196              		.global	TIM_ForcedOC4Config
 2197              		.syntax unified
 2198              		.thumb
 2199              		.thumb_func
 2200              		.fpu softvfp
 2202              	TIM_ForcedOC4Config:
 2203              		@ args = 0, pretend = 0, frame = 16
 2204              		@ frame_needed = 1, uses_anonymous_args = 0
 2205              		@ link register save eliminated.
 2206 0000 80B4     		push	{r7}
 2207 0002 85B0     		sub	sp, sp, #20
 2208 0004 00AF     		add	r7, sp, #0
 2209 0006 7860     		str	r0, [r7, #4]
 2210 0008 0B46     		mov	r3, r1
 2211 000a 7B80     		strh	r3, [r7, #2]	@ movhi
 2212 000c 0023     		movs	r3, #0
 2213 000e FB81     		strh	r3, [r7, #14]	@ movhi
 2214 0010 7B68     		ldr	r3, [r7, #4]
 2215 0012 9B8B     		ldrh	r3, [r3, #28]	@ movhi
 2216 0014 FB81     		strh	r3, [r7, #14]	@ movhi
 2217 0016 FB89     		ldrh	r3, [r7, #14]	@ movhi
 2218 0018 23F4E043 		bic	r3, r3, #28672
 2219 001c FB81     		strh	r3, [r7, #14]	@ movhi
 2220 001e 7B88     		ldrh	r3, [r7, #2]	@ movhi
 2221 0020 1B02     		lsls	r3, r3, #8
 2222 0022 9AB2     		uxth	r2, r3
 2223 0024 FB89     		ldrh	r3, [r7, #14]	@ movhi
 2224 0026 1343     		orrs	r3, r3, r2
 2225 0028 FB81     		strh	r3, [r7, #14]	@ movhi
 2226 002a 7B68     		ldr	r3, [r7, #4]
 2227 002c FA89     		ldrh	r2, [r7, #14]	@ movhi
 2228 002e 9A83     		strh	r2, [r3, #28]	@ movhi
 2229 0030 00BF     		nop
 2230 0032 1437     		adds	r7, r7, #20
 2231 0034 BD46     		mov	sp, r7
ARM GAS  C:\msys64\tmp\cc82fx43.s 			page 39


 2232              		@ sp needed
 2233 0036 80BC     		pop	{r7}
 2234 0038 7047     		bx	lr
 2236              		.section	.text.TIM_ARRPreloadConfig,"ax",%progbits
 2237              		.align	1
 2238              		.global	TIM_ARRPreloadConfig
 2239              		.syntax unified
 2240              		.thumb
 2241              		.thumb_func
 2242              		.fpu softvfp
 2244              	TIM_ARRPreloadConfig:
 2245              		@ args = 0, pretend = 0, frame = 8
 2246              		@ frame_needed = 1, uses_anonymous_args = 0
 2247              		@ link register save eliminated.
 2248 0000 80B4     		push	{r7}
 2249 0002 83B0     		sub	sp, sp, #12
 2250 0004 00AF     		add	r7, sp, #0
 2251 0006 7860     		str	r0, [r7, #4]
 2252 0008 0B46     		mov	r3, r1
 2253 000a FB70     		strb	r3, [r7, #3]
 2254 000c FB78     		ldrb	r3, [r7, #3]	@ zero_extendqisi2
 2255 000e 002B     		cmp	r3, #0
 2256 0010 08D0     		beq	.L104
 2257 0012 7B68     		ldr	r3, [r7, #4]
 2258 0014 1B88     		ldrh	r3, [r3]	@ movhi
 2259 0016 9BB2     		uxth	r3, r3
 2260 0018 43F08003 		orr	r3, r3, #128
 2261 001c 9AB2     		uxth	r2, r3
 2262 001e 7B68     		ldr	r3, [r7, #4]
 2263 0020 1A80     		strh	r2, [r3]	@ movhi
 2264 0022 07E0     		b	.L106
 2265              	.L104:
 2266 0024 7B68     		ldr	r3, [r7, #4]
 2267 0026 1B88     		ldrh	r3, [r3]	@ movhi
 2268 0028 9BB2     		uxth	r3, r3
 2269 002a 23F08003 		bic	r3, r3, #128
 2270 002e 9AB2     		uxth	r2, r3
 2271 0030 7B68     		ldr	r3, [r7, #4]
 2272 0032 1A80     		strh	r2, [r3]	@ movhi
 2273              	.L106:
 2274 0034 00BF     		nop
 2275 0036 0C37     		adds	r7, r7, #12
 2276 0038 BD46     		mov	sp, r7
 2277              		@ sp needed
 2278 003a 80BC     		pop	{r7}
 2279 003c 7047     		bx	lr
 2281              		.section	.text.TIM_SelectCOM,"ax",%progbits
 2282              		.align	1
 2283              		.global	TIM_SelectCOM
 2284              		.syntax unified
 2285              		.thumb
 2286              		.thumb_func
 2287              		.fpu softvfp
 2289              	TIM_SelectCOM:
 2290              		@ args = 0, pretend = 0, frame = 8
 2291              		@ frame_needed = 1, uses_anonymous_args = 0
 2292              		@ link register save eliminated.
ARM GAS  C:\msys64\tmp\cc82fx43.s 			page 40


 2293 0000 80B4     		push	{r7}
 2294 0002 83B0     		sub	sp, sp, #12
 2295 0004 00AF     		add	r7, sp, #0
 2296 0006 7860     		str	r0, [r7, #4]
 2297 0008 0B46     		mov	r3, r1
 2298 000a FB70     		strb	r3, [r7, #3]
 2299 000c FB78     		ldrb	r3, [r7, #3]	@ zero_extendqisi2
 2300 000e 002B     		cmp	r3, #0
 2301 0010 08D0     		beq	.L108
 2302 0012 7B68     		ldr	r3, [r7, #4]
 2303 0014 9B88     		ldrh	r3, [r3, #4]	@ movhi
 2304 0016 9BB2     		uxth	r3, r3
 2305 0018 43F00403 		orr	r3, r3, #4
 2306 001c 9AB2     		uxth	r2, r3
 2307 001e 7B68     		ldr	r3, [r7, #4]
 2308 0020 9A80     		strh	r2, [r3, #4]	@ movhi
 2309 0022 07E0     		b	.L110
 2310              	.L108:
 2311 0024 7B68     		ldr	r3, [r7, #4]
 2312 0026 9B88     		ldrh	r3, [r3, #4]	@ movhi
 2313 0028 9BB2     		uxth	r3, r3
 2314 002a 23F00403 		bic	r3, r3, #4
 2315 002e 9AB2     		uxth	r2, r3
 2316 0030 7B68     		ldr	r3, [r7, #4]
 2317 0032 9A80     		strh	r2, [r3, #4]	@ movhi
 2318              	.L110:
 2319 0034 00BF     		nop
 2320 0036 0C37     		adds	r7, r7, #12
 2321 0038 BD46     		mov	sp, r7
 2322              		@ sp needed
 2323 003a 80BC     		pop	{r7}
 2324 003c 7047     		bx	lr
 2326              		.section	.text.TIM_SelectCCDMA,"ax",%progbits
 2327              		.align	1
 2328              		.global	TIM_SelectCCDMA
 2329              		.syntax unified
 2330              		.thumb
 2331              		.thumb_func
 2332              		.fpu softvfp
 2334              	TIM_SelectCCDMA:
 2335              		@ args = 0, pretend = 0, frame = 8
 2336              		@ frame_needed = 1, uses_anonymous_args = 0
 2337              		@ link register save eliminated.
 2338 0000 80B4     		push	{r7}
 2339 0002 83B0     		sub	sp, sp, #12
 2340 0004 00AF     		add	r7, sp, #0
 2341 0006 7860     		str	r0, [r7, #4]
 2342 0008 0B46     		mov	r3, r1
 2343 000a FB70     		strb	r3, [r7, #3]
 2344 000c FB78     		ldrb	r3, [r7, #3]	@ zero_extendqisi2
 2345 000e 002B     		cmp	r3, #0
 2346 0010 08D0     		beq	.L112
 2347 0012 7B68     		ldr	r3, [r7, #4]
 2348 0014 9B88     		ldrh	r3, [r3, #4]	@ movhi
 2349 0016 9BB2     		uxth	r3, r3
 2350 0018 43F00803 		orr	r3, r3, #8
 2351 001c 9AB2     		uxth	r2, r3
ARM GAS  C:\msys64\tmp\cc82fx43.s 			page 41


 2352 001e 7B68     		ldr	r3, [r7, #4]
 2353 0020 9A80     		strh	r2, [r3, #4]	@ movhi
 2354 0022 07E0     		b	.L114
 2355              	.L112:
 2356 0024 7B68     		ldr	r3, [r7, #4]
 2357 0026 9B88     		ldrh	r3, [r3, #4]	@ movhi
 2358 0028 9BB2     		uxth	r3, r3
 2359 002a 23F00803 		bic	r3, r3, #8
 2360 002e 9AB2     		uxth	r2, r3
 2361 0030 7B68     		ldr	r3, [r7, #4]
 2362 0032 9A80     		strh	r2, [r3, #4]	@ movhi
 2363              	.L114:
 2364 0034 00BF     		nop
 2365 0036 0C37     		adds	r7, r7, #12
 2366 0038 BD46     		mov	sp, r7
 2367              		@ sp needed
 2368 003a 80BC     		pop	{r7}
 2369 003c 7047     		bx	lr
 2371              		.section	.text.TIM_CCPreloadControl,"ax",%progbits
 2372              		.align	1
 2373              		.global	TIM_CCPreloadControl
 2374              		.syntax unified
 2375              		.thumb
 2376              		.thumb_func
 2377              		.fpu softvfp
 2379              	TIM_CCPreloadControl:
 2380              		@ args = 0, pretend = 0, frame = 8
 2381              		@ frame_needed = 1, uses_anonymous_args = 0
 2382              		@ link register save eliminated.
 2383 0000 80B4     		push	{r7}
 2384 0002 83B0     		sub	sp, sp, #12
 2385 0004 00AF     		add	r7, sp, #0
 2386 0006 7860     		str	r0, [r7, #4]
 2387 0008 0B46     		mov	r3, r1
 2388 000a FB70     		strb	r3, [r7, #3]
 2389 000c FB78     		ldrb	r3, [r7, #3]	@ zero_extendqisi2
 2390 000e 002B     		cmp	r3, #0
 2391 0010 08D0     		beq	.L116
 2392 0012 7B68     		ldr	r3, [r7, #4]
 2393 0014 9B88     		ldrh	r3, [r3, #4]	@ movhi
 2394 0016 9BB2     		uxth	r3, r3
 2395 0018 43F00103 		orr	r3, r3, #1
 2396 001c 9AB2     		uxth	r2, r3
 2397 001e 7B68     		ldr	r3, [r7, #4]
 2398 0020 9A80     		strh	r2, [r3, #4]	@ movhi
 2399 0022 07E0     		b	.L118
 2400              	.L116:
 2401 0024 7B68     		ldr	r3, [r7, #4]
 2402 0026 9B88     		ldrh	r3, [r3, #4]	@ movhi
 2403 0028 9BB2     		uxth	r3, r3
 2404 002a 23F00103 		bic	r3, r3, #1
 2405 002e 9AB2     		uxth	r2, r3
 2406 0030 7B68     		ldr	r3, [r7, #4]
 2407 0032 9A80     		strh	r2, [r3, #4]	@ movhi
 2408              	.L118:
 2409 0034 00BF     		nop
 2410 0036 0C37     		adds	r7, r7, #12
ARM GAS  C:\msys64\tmp\cc82fx43.s 			page 42


 2411 0038 BD46     		mov	sp, r7
 2412              		@ sp needed
 2413 003a 80BC     		pop	{r7}
 2414 003c 7047     		bx	lr
 2416              		.section	.text.TIM_OC1PreloadConfig,"ax",%progbits
 2417              		.align	1
 2418              		.global	TIM_OC1PreloadConfig
 2419              		.syntax unified
 2420              		.thumb
 2421              		.thumb_func
 2422              		.fpu softvfp
 2424              	TIM_OC1PreloadConfig:
 2425              		@ args = 0, pretend = 0, frame = 16
 2426              		@ frame_needed = 1, uses_anonymous_args = 0
 2427              		@ link register save eliminated.
 2428 0000 80B4     		push	{r7}
 2429 0002 85B0     		sub	sp, sp, #20
 2430 0004 00AF     		add	r7, sp, #0
 2431 0006 7860     		str	r0, [r7, #4]
 2432 0008 0B46     		mov	r3, r1
 2433 000a 7B80     		strh	r3, [r7, #2]	@ movhi
 2434 000c 0023     		movs	r3, #0
 2435 000e FB81     		strh	r3, [r7, #14]	@ movhi
 2436 0010 7B68     		ldr	r3, [r7, #4]
 2437 0012 1B8B     		ldrh	r3, [r3, #24]	@ movhi
 2438 0014 FB81     		strh	r3, [r7, #14]	@ movhi
 2439 0016 FB89     		ldrh	r3, [r7, #14]	@ movhi
 2440 0018 23F00803 		bic	r3, r3, #8
 2441 001c FB81     		strh	r3, [r7, #14]	@ movhi
 2442 001e FA89     		ldrh	r2, [r7, #14]	@ movhi
 2443 0020 7B88     		ldrh	r3, [r7, #2]	@ movhi
 2444 0022 1343     		orrs	r3, r3, r2
 2445 0024 FB81     		strh	r3, [r7, #14]	@ movhi
 2446 0026 7B68     		ldr	r3, [r7, #4]
 2447 0028 FA89     		ldrh	r2, [r7, #14]	@ movhi
 2448 002a 1A83     		strh	r2, [r3, #24]	@ movhi
 2449 002c 00BF     		nop
 2450 002e 1437     		adds	r7, r7, #20
 2451 0030 BD46     		mov	sp, r7
 2452              		@ sp needed
 2453 0032 80BC     		pop	{r7}
 2454 0034 7047     		bx	lr
 2456              		.section	.text.TIM_OC2PreloadConfig,"ax",%progbits
 2457              		.align	1
 2458              		.global	TIM_OC2PreloadConfig
 2459              		.syntax unified
 2460              		.thumb
 2461              		.thumb_func
 2462              		.fpu softvfp
 2464              	TIM_OC2PreloadConfig:
 2465              		@ args = 0, pretend = 0, frame = 16
 2466              		@ frame_needed = 1, uses_anonymous_args = 0
 2467              		@ link register save eliminated.
 2468 0000 80B4     		push	{r7}
 2469 0002 85B0     		sub	sp, sp, #20
 2470 0004 00AF     		add	r7, sp, #0
 2471 0006 7860     		str	r0, [r7, #4]
ARM GAS  C:\msys64\tmp\cc82fx43.s 			page 43


 2472 0008 0B46     		mov	r3, r1
 2473 000a 7B80     		strh	r3, [r7, #2]	@ movhi
 2474 000c 0023     		movs	r3, #0
 2475 000e FB81     		strh	r3, [r7, #14]	@ movhi
 2476 0010 7B68     		ldr	r3, [r7, #4]
 2477 0012 1B8B     		ldrh	r3, [r3, #24]	@ movhi
 2478 0014 FB81     		strh	r3, [r7, #14]	@ movhi
 2479 0016 FB89     		ldrh	r3, [r7, #14]	@ movhi
 2480 0018 23F40063 		bic	r3, r3, #2048
 2481 001c FB81     		strh	r3, [r7, #14]	@ movhi
 2482 001e 7B88     		ldrh	r3, [r7, #2]	@ movhi
 2483 0020 1B02     		lsls	r3, r3, #8
 2484 0022 9AB2     		uxth	r2, r3
 2485 0024 FB89     		ldrh	r3, [r7, #14]	@ movhi
 2486 0026 1343     		orrs	r3, r3, r2
 2487 0028 FB81     		strh	r3, [r7, #14]	@ movhi
 2488 002a 7B68     		ldr	r3, [r7, #4]
 2489 002c FA89     		ldrh	r2, [r7, #14]	@ movhi
 2490 002e 1A83     		strh	r2, [r3, #24]	@ movhi
 2491 0030 00BF     		nop
 2492 0032 1437     		adds	r7, r7, #20
 2493 0034 BD46     		mov	sp, r7
 2494              		@ sp needed
 2495 0036 80BC     		pop	{r7}
 2496 0038 7047     		bx	lr
 2498              		.section	.text.TIM_OC3PreloadConfig,"ax",%progbits
 2499              		.align	1
 2500              		.global	TIM_OC3PreloadConfig
 2501              		.syntax unified
 2502              		.thumb
 2503              		.thumb_func
 2504              		.fpu softvfp
 2506              	TIM_OC3PreloadConfig:
 2507              		@ args = 0, pretend = 0, frame = 16
 2508              		@ frame_needed = 1, uses_anonymous_args = 0
 2509              		@ link register save eliminated.
 2510 0000 80B4     		push	{r7}
 2511 0002 85B0     		sub	sp, sp, #20
 2512 0004 00AF     		add	r7, sp, #0
 2513 0006 7860     		str	r0, [r7, #4]
 2514 0008 0B46     		mov	r3, r1
 2515 000a 7B80     		strh	r3, [r7, #2]	@ movhi
 2516 000c 0023     		movs	r3, #0
 2517 000e FB81     		strh	r3, [r7, #14]	@ movhi
 2518 0010 7B68     		ldr	r3, [r7, #4]
 2519 0012 9B8B     		ldrh	r3, [r3, #28]	@ movhi
 2520 0014 FB81     		strh	r3, [r7, #14]	@ movhi
 2521 0016 FB89     		ldrh	r3, [r7, #14]	@ movhi
 2522 0018 23F00803 		bic	r3, r3, #8
 2523 001c FB81     		strh	r3, [r7, #14]	@ movhi
 2524 001e FA89     		ldrh	r2, [r7, #14]	@ movhi
 2525 0020 7B88     		ldrh	r3, [r7, #2]	@ movhi
 2526 0022 1343     		orrs	r3, r3, r2
 2527 0024 FB81     		strh	r3, [r7, #14]	@ movhi
 2528 0026 7B68     		ldr	r3, [r7, #4]
 2529 0028 FA89     		ldrh	r2, [r7, #14]	@ movhi
 2530 002a 9A83     		strh	r2, [r3, #28]	@ movhi
ARM GAS  C:\msys64\tmp\cc82fx43.s 			page 44


 2531 002c 00BF     		nop
 2532 002e 1437     		adds	r7, r7, #20
 2533 0030 BD46     		mov	sp, r7
 2534              		@ sp needed
 2535 0032 80BC     		pop	{r7}
 2536 0034 7047     		bx	lr
 2538              		.section	.text.TIM_OC4PreloadConfig,"ax",%progbits
 2539              		.align	1
 2540              		.global	TIM_OC4PreloadConfig
 2541              		.syntax unified
 2542              		.thumb
 2543              		.thumb_func
 2544              		.fpu softvfp
 2546              	TIM_OC4PreloadConfig:
 2547              		@ args = 0, pretend = 0, frame = 16
 2548              		@ frame_needed = 1, uses_anonymous_args = 0
 2549              		@ link register save eliminated.
 2550 0000 80B4     		push	{r7}
 2551 0002 85B0     		sub	sp, sp, #20
 2552 0004 00AF     		add	r7, sp, #0
 2553 0006 7860     		str	r0, [r7, #4]
 2554 0008 0B46     		mov	r3, r1
 2555 000a 7B80     		strh	r3, [r7, #2]	@ movhi
 2556 000c 0023     		movs	r3, #0
 2557 000e FB81     		strh	r3, [r7, #14]	@ movhi
 2558 0010 7B68     		ldr	r3, [r7, #4]
 2559 0012 9B8B     		ldrh	r3, [r3, #28]	@ movhi
 2560 0014 FB81     		strh	r3, [r7, #14]	@ movhi
 2561 0016 FB89     		ldrh	r3, [r7, #14]	@ movhi
 2562 0018 23F40063 		bic	r3, r3, #2048
 2563 001c FB81     		strh	r3, [r7, #14]	@ movhi
 2564 001e 7B88     		ldrh	r3, [r7, #2]	@ movhi
 2565 0020 1B02     		lsls	r3, r3, #8
 2566 0022 9AB2     		uxth	r2, r3
 2567 0024 FB89     		ldrh	r3, [r7, #14]	@ movhi
 2568 0026 1343     		orrs	r3, r3, r2
 2569 0028 FB81     		strh	r3, [r7, #14]	@ movhi
 2570 002a 7B68     		ldr	r3, [r7, #4]
 2571 002c FA89     		ldrh	r2, [r7, #14]	@ movhi
 2572 002e 9A83     		strh	r2, [r3, #28]	@ movhi
 2573 0030 00BF     		nop
 2574 0032 1437     		adds	r7, r7, #20
 2575 0034 BD46     		mov	sp, r7
 2576              		@ sp needed
 2577 0036 80BC     		pop	{r7}
 2578 0038 7047     		bx	lr
 2580              		.section	.text.TIM_OC1FastConfig,"ax",%progbits
 2581              		.align	1
 2582              		.global	TIM_OC1FastConfig
 2583              		.syntax unified
 2584              		.thumb
 2585              		.thumb_func
 2586              		.fpu softvfp
 2588              	TIM_OC1FastConfig:
 2589              		@ args = 0, pretend = 0, frame = 16
 2590              		@ frame_needed = 1, uses_anonymous_args = 0
 2591              		@ link register save eliminated.
ARM GAS  C:\msys64\tmp\cc82fx43.s 			page 45


 2592 0000 80B4     		push	{r7}
 2593 0002 85B0     		sub	sp, sp, #20
 2594 0004 00AF     		add	r7, sp, #0
 2595 0006 7860     		str	r0, [r7, #4]
 2596 0008 0B46     		mov	r3, r1
 2597 000a 7B80     		strh	r3, [r7, #2]	@ movhi
 2598 000c 0023     		movs	r3, #0
 2599 000e FB81     		strh	r3, [r7, #14]	@ movhi
 2600 0010 7B68     		ldr	r3, [r7, #4]
 2601 0012 1B8B     		ldrh	r3, [r3, #24]	@ movhi
 2602 0014 FB81     		strh	r3, [r7, #14]	@ movhi
 2603 0016 FB89     		ldrh	r3, [r7, #14]	@ movhi
 2604 0018 23F00403 		bic	r3, r3, #4
 2605 001c FB81     		strh	r3, [r7, #14]	@ movhi
 2606 001e FA89     		ldrh	r2, [r7, #14]	@ movhi
 2607 0020 7B88     		ldrh	r3, [r7, #2]	@ movhi
 2608 0022 1343     		orrs	r3, r3, r2
 2609 0024 FB81     		strh	r3, [r7, #14]	@ movhi
 2610 0026 7B68     		ldr	r3, [r7, #4]
 2611 0028 FA89     		ldrh	r2, [r7, #14]	@ movhi
 2612 002a 1A83     		strh	r2, [r3, #24]	@ movhi
 2613 002c 00BF     		nop
 2614 002e 1437     		adds	r7, r7, #20
 2615 0030 BD46     		mov	sp, r7
 2616              		@ sp needed
 2617 0032 80BC     		pop	{r7}
 2618 0034 7047     		bx	lr
 2620              		.section	.text.TIM_OC2FastConfig,"ax",%progbits
 2621              		.align	1
 2622              		.global	TIM_OC2FastConfig
 2623              		.syntax unified
 2624              		.thumb
 2625              		.thumb_func
 2626              		.fpu softvfp
 2628              	TIM_OC2FastConfig:
 2629              		@ args = 0, pretend = 0, frame = 16
 2630              		@ frame_needed = 1, uses_anonymous_args = 0
 2631              		@ link register save eliminated.
 2632 0000 80B4     		push	{r7}
 2633 0002 85B0     		sub	sp, sp, #20
 2634 0004 00AF     		add	r7, sp, #0
 2635 0006 7860     		str	r0, [r7, #4]
 2636 0008 0B46     		mov	r3, r1
 2637 000a 7B80     		strh	r3, [r7, #2]	@ movhi
 2638 000c 0023     		movs	r3, #0
 2639 000e FB81     		strh	r3, [r7, #14]	@ movhi
 2640 0010 7B68     		ldr	r3, [r7, #4]
 2641 0012 1B8B     		ldrh	r3, [r3, #24]	@ movhi
 2642 0014 FB81     		strh	r3, [r7, #14]	@ movhi
 2643 0016 FB89     		ldrh	r3, [r7, #14]	@ movhi
 2644 0018 23F48063 		bic	r3, r3, #1024
 2645 001c FB81     		strh	r3, [r7, #14]	@ movhi
 2646 001e 7B88     		ldrh	r3, [r7, #2]	@ movhi
 2647 0020 1B02     		lsls	r3, r3, #8
 2648 0022 9AB2     		uxth	r2, r3
 2649 0024 FB89     		ldrh	r3, [r7, #14]	@ movhi
 2650 0026 1343     		orrs	r3, r3, r2
ARM GAS  C:\msys64\tmp\cc82fx43.s 			page 46


 2651 0028 FB81     		strh	r3, [r7, #14]	@ movhi
 2652 002a 7B68     		ldr	r3, [r7, #4]
 2653 002c FA89     		ldrh	r2, [r7, #14]	@ movhi
 2654 002e 1A83     		strh	r2, [r3, #24]	@ movhi
 2655 0030 00BF     		nop
 2656 0032 1437     		adds	r7, r7, #20
 2657 0034 BD46     		mov	sp, r7
 2658              		@ sp needed
 2659 0036 80BC     		pop	{r7}
 2660 0038 7047     		bx	lr
 2662              		.section	.text.TIM_OC3FastConfig,"ax",%progbits
 2663              		.align	1
 2664              		.global	TIM_OC3FastConfig
 2665              		.syntax unified
 2666              		.thumb
 2667              		.thumb_func
 2668              		.fpu softvfp
 2670              	TIM_OC3FastConfig:
 2671              		@ args = 0, pretend = 0, frame = 16
 2672              		@ frame_needed = 1, uses_anonymous_args = 0
 2673              		@ link register save eliminated.
 2674 0000 80B4     		push	{r7}
 2675 0002 85B0     		sub	sp, sp, #20
 2676 0004 00AF     		add	r7, sp, #0
 2677 0006 7860     		str	r0, [r7, #4]
 2678 0008 0B46     		mov	r3, r1
 2679 000a 7B80     		strh	r3, [r7, #2]	@ movhi
 2680 000c 0023     		movs	r3, #0
 2681 000e FB81     		strh	r3, [r7, #14]	@ movhi
 2682 0010 7B68     		ldr	r3, [r7, #4]
 2683 0012 9B8B     		ldrh	r3, [r3, #28]	@ movhi
 2684 0014 FB81     		strh	r3, [r7, #14]	@ movhi
 2685 0016 FB89     		ldrh	r3, [r7, #14]	@ movhi
 2686 0018 23F00403 		bic	r3, r3, #4
 2687 001c FB81     		strh	r3, [r7, #14]	@ movhi
 2688 001e FA89     		ldrh	r2, [r7, #14]	@ movhi
 2689 0020 7B88     		ldrh	r3, [r7, #2]	@ movhi
 2690 0022 1343     		orrs	r3, r3, r2
 2691 0024 FB81     		strh	r3, [r7, #14]	@ movhi
 2692 0026 7B68     		ldr	r3, [r7, #4]
 2693 0028 FA89     		ldrh	r2, [r7, #14]	@ movhi
 2694 002a 9A83     		strh	r2, [r3, #28]	@ movhi
 2695 002c 00BF     		nop
 2696 002e 1437     		adds	r7, r7, #20
 2697 0030 BD46     		mov	sp, r7
 2698              		@ sp needed
 2699 0032 80BC     		pop	{r7}
 2700 0034 7047     		bx	lr
 2702              		.section	.text.TIM_OC4FastConfig,"ax",%progbits
 2703              		.align	1
 2704              		.global	TIM_OC4FastConfig
 2705              		.syntax unified
 2706              		.thumb
 2707              		.thumb_func
 2708              		.fpu softvfp
 2710              	TIM_OC4FastConfig:
 2711              		@ args = 0, pretend = 0, frame = 16
ARM GAS  C:\msys64\tmp\cc82fx43.s 			page 47


 2712              		@ frame_needed = 1, uses_anonymous_args = 0
 2713              		@ link register save eliminated.
 2714 0000 80B4     		push	{r7}
 2715 0002 85B0     		sub	sp, sp, #20
 2716 0004 00AF     		add	r7, sp, #0
 2717 0006 7860     		str	r0, [r7, #4]
 2718 0008 0B46     		mov	r3, r1
 2719 000a 7B80     		strh	r3, [r7, #2]	@ movhi
 2720 000c 0023     		movs	r3, #0
 2721 000e FB81     		strh	r3, [r7, #14]	@ movhi
 2722 0010 7B68     		ldr	r3, [r7, #4]
 2723 0012 9B8B     		ldrh	r3, [r3, #28]	@ movhi
 2724 0014 FB81     		strh	r3, [r7, #14]	@ movhi
 2725 0016 FB89     		ldrh	r3, [r7, #14]	@ movhi
 2726 0018 23F48063 		bic	r3, r3, #1024
 2727 001c FB81     		strh	r3, [r7, #14]	@ movhi
 2728 001e 7B88     		ldrh	r3, [r7, #2]	@ movhi
 2729 0020 1B02     		lsls	r3, r3, #8
 2730 0022 9AB2     		uxth	r2, r3
 2731 0024 FB89     		ldrh	r3, [r7, #14]	@ movhi
 2732 0026 1343     		orrs	r3, r3, r2
 2733 0028 FB81     		strh	r3, [r7, #14]	@ movhi
 2734 002a 7B68     		ldr	r3, [r7, #4]
 2735 002c FA89     		ldrh	r2, [r7, #14]	@ movhi
 2736 002e 9A83     		strh	r2, [r3, #28]	@ movhi
 2737 0030 00BF     		nop
 2738 0032 1437     		adds	r7, r7, #20
 2739 0034 BD46     		mov	sp, r7
 2740              		@ sp needed
 2741 0036 80BC     		pop	{r7}
 2742 0038 7047     		bx	lr
 2744              		.section	.text.TIM_ClearOC1Ref,"ax",%progbits
 2745              		.align	1
 2746              		.global	TIM_ClearOC1Ref
 2747              		.syntax unified
 2748              		.thumb
 2749              		.thumb_func
 2750              		.fpu softvfp
 2752              	TIM_ClearOC1Ref:
 2753              		@ args = 0, pretend = 0, frame = 16
 2754              		@ frame_needed = 1, uses_anonymous_args = 0
 2755              		@ link register save eliminated.
 2756 0000 80B4     		push	{r7}
 2757 0002 85B0     		sub	sp, sp, #20
 2758 0004 00AF     		add	r7, sp, #0
 2759 0006 7860     		str	r0, [r7, #4]
 2760 0008 0B46     		mov	r3, r1
 2761 000a 7B80     		strh	r3, [r7, #2]	@ movhi
 2762 000c 0023     		movs	r3, #0
 2763 000e FB81     		strh	r3, [r7, #14]	@ movhi
 2764 0010 7B68     		ldr	r3, [r7, #4]
 2765 0012 1B8B     		ldrh	r3, [r3, #24]	@ movhi
 2766 0014 FB81     		strh	r3, [r7, #14]	@ movhi
 2767 0016 FB89     		ldrh	r3, [r7, #14]	@ movhi
 2768 0018 23F08003 		bic	r3, r3, #128
 2769 001c FB81     		strh	r3, [r7, #14]	@ movhi
 2770 001e FA89     		ldrh	r2, [r7, #14]	@ movhi
ARM GAS  C:\msys64\tmp\cc82fx43.s 			page 48


 2771 0020 7B88     		ldrh	r3, [r7, #2]	@ movhi
 2772 0022 1343     		orrs	r3, r3, r2
 2773 0024 FB81     		strh	r3, [r7, #14]	@ movhi
 2774 0026 7B68     		ldr	r3, [r7, #4]
 2775 0028 FA89     		ldrh	r2, [r7, #14]	@ movhi
 2776 002a 1A83     		strh	r2, [r3, #24]	@ movhi
 2777 002c 00BF     		nop
 2778 002e 1437     		adds	r7, r7, #20
 2779 0030 BD46     		mov	sp, r7
 2780              		@ sp needed
 2781 0032 80BC     		pop	{r7}
 2782 0034 7047     		bx	lr
 2784              		.section	.text.TIM_ClearOC2Ref,"ax",%progbits
 2785              		.align	1
 2786              		.global	TIM_ClearOC2Ref
 2787              		.syntax unified
 2788              		.thumb
 2789              		.thumb_func
 2790              		.fpu softvfp
 2792              	TIM_ClearOC2Ref:
 2793              		@ args = 0, pretend = 0, frame = 16
 2794              		@ frame_needed = 1, uses_anonymous_args = 0
 2795              		@ link register save eliminated.
 2796 0000 80B4     		push	{r7}
 2797 0002 85B0     		sub	sp, sp, #20
 2798 0004 00AF     		add	r7, sp, #0
 2799 0006 7860     		str	r0, [r7, #4]
 2800 0008 0B46     		mov	r3, r1
 2801 000a 7B80     		strh	r3, [r7, #2]	@ movhi
 2802 000c 0023     		movs	r3, #0
 2803 000e FB81     		strh	r3, [r7, #14]	@ movhi
 2804 0010 7B68     		ldr	r3, [r7, #4]
 2805 0012 1B8B     		ldrh	r3, [r3, #24]	@ movhi
 2806 0014 FB81     		strh	r3, [r7, #14]	@ movhi
 2807 0016 FB89     		ldrh	r3, [r7, #14]	@ movhi
 2808 0018 C3F30E03 		ubfx	r3, r3, #0, #15
 2809 001c FB81     		strh	r3, [r7, #14]	@ movhi
 2810 001e 7B88     		ldrh	r3, [r7, #2]	@ movhi
 2811 0020 1B02     		lsls	r3, r3, #8
 2812 0022 9AB2     		uxth	r2, r3
 2813 0024 FB89     		ldrh	r3, [r7, #14]	@ movhi
 2814 0026 1343     		orrs	r3, r3, r2
 2815 0028 FB81     		strh	r3, [r7, #14]	@ movhi
 2816 002a 7B68     		ldr	r3, [r7, #4]
 2817 002c FA89     		ldrh	r2, [r7, #14]	@ movhi
 2818 002e 1A83     		strh	r2, [r3, #24]	@ movhi
 2819 0030 00BF     		nop
 2820 0032 1437     		adds	r7, r7, #20
 2821 0034 BD46     		mov	sp, r7
 2822              		@ sp needed
 2823 0036 80BC     		pop	{r7}
 2824 0038 7047     		bx	lr
 2826              		.section	.text.TIM_ClearOC3Ref,"ax",%progbits
 2827              		.align	1
 2828              		.global	TIM_ClearOC3Ref
 2829              		.syntax unified
 2830              		.thumb
ARM GAS  C:\msys64\tmp\cc82fx43.s 			page 49


 2831              		.thumb_func
 2832              		.fpu softvfp
 2834              	TIM_ClearOC3Ref:
 2835              		@ args = 0, pretend = 0, frame = 16
 2836              		@ frame_needed = 1, uses_anonymous_args = 0
 2837              		@ link register save eliminated.
 2838 0000 80B4     		push	{r7}
 2839 0002 85B0     		sub	sp, sp, #20
 2840 0004 00AF     		add	r7, sp, #0
 2841 0006 7860     		str	r0, [r7, #4]
 2842 0008 0B46     		mov	r3, r1
 2843 000a 7B80     		strh	r3, [r7, #2]	@ movhi
 2844 000c 0023     		movs	r3, #0
 2845 000e FB81     		strh	r3, [r7, #14]	@ movhi
 2846 0010 7B68     		ldr	r3, [r7, #4]
 2847 0012 9B8B     		ldrh	r3, [r3, #28]	@ movhi
 2848 0014 FB81     		strh	r3, [r7, #14]	@ movhi
 2849 0016 FB89     		ldrh	r3, [r7, #14]	@ movhi
 2850 0018 23F08003 		bic	r3, r3, #128
 2851 001c FB81     		strh	r3, [r7, #14]	@ movhi
 2852 001e FA89     		ldrh	r2, [r7, #14]	@ movhi
 2853 0020 7B88     		ldrh	r3, [r7, #2]	@ movhi
 2854 0022 1343     		orrs	r3, r3, r2
 2855 0024 FB81     		strh	r3, [r7, #14]	@ movhi
 2856 0026 7B68     		ldr	r3, [r7, #4]
 2857 0028 FA89     		ldrh	r2, [r7, #14]	@ movhi
 2858 002a 9A83     		strh	r2, [r3, #28]	@ movhi
 2859 002c 00BF     		nop
 2860 002e 1437     		adds	r7, r7, #20
 2861 0030 BD46     		mov	sp, r7
 2862              		@ sp needed
 2863 0032 80BC     		pop	{r7}
 2864 0034 7047     		bx	lr
 2866              		.section	.text.TIM_ClearOC4Ref,"ax",%progbits
 2867              		.align	1
 2868              		.global	TIM_ClearOC4Ref
 2869              		.syntax unified
 2870              		.thumb
 2871              		.thumb_func
 2872              		.fpu softvfp
 2874              	TIM_ClearOC4Ref:
 2875              		@ args = 0, pretend = 0, frame = 16
 2876              		@ frame_needed = 1, uses_anonymous_args = 0
 2877              		@ link register save eliminated.
 2878 0000 80B4     		push	{r7}
 2879 0002 85B0     		sub	sp, sp, #20
 2880 0004 00AF     		add	r7, sp, #0
 2881 0006 7860     		str	r0, [r7, #4]
 2882 0008 0B46     		mov	r3, r1
 2883 000a 7B80     		strh	r3, [r7, #2]	@ movhi
 2884 000c 0023     		movs	r3, #0
 2885 000e FB81     		strh	r3, [r7, #14]	@ movhi
 2886 0010 7B68     		ldr	r3, [r7, #4]
 2887 0012 9B8B     		ldrh	r3, [r3, #28]	@ movhi
 2888 0014 FB81     		strh	r3, [r7, #14]	@ movhi
 2889 0016 FB89     		ldrh	r3, [r7, #14]	@ movhi
 2890 0018 C3F30E03 		ubfx	r3, r3, #0, #15
ARM GAS  C:\msys64\tmp\cc82fx43.s 			page 50


 2891 001c FB81     		strh	r3, [r7, #14]	@ movhi
 2892 001e 7B88     		ldrh	r3, [r7, #2]	@ movhi
 2893 0020 1B02     		lsls	r3, r3, #8
 2894 0022 9AB2     		uxth	r2, r3
 2895 0024 FB89     		ldrh	r3, [r7, #14]	@ movhi
 2896 0026 1343     		orrs	r3, r3, r2
 2897 0028 FB81     		strh	r3, [r7, #14]	@ movhi
 2898 002a 7B68     		ldr	r3, [r7, #4]
 2899 002c FA89     		ldrh	r2, [r7, #14]	@ movhi
 2900 002e 9A83     		strh	r2, [r3, #28]	@ movhi
 2901 0030 00BF     		nop
 2902 0032 1437     		adds	r7, r7, #20
 2903 0034 BD46     		mov	sp, r7
 2904              		@ sp needed
 2905 0036 80BC     		pop	{r7}
 2906 0038 7047     		bx	lr
 2908              		.section	.text.TIM_OC1PolarityConfig,"ax",%progbits
 2909              		.align	1
 2910              		.global	TIM_OC1PolarityConfig
 2911              		.syntax unified
 2912              		.thumb
 2913              		.thumb_func
 2914              		.fpu softvfp
 2916              	TIM_OC1PolarityConfig:
 2917              		@ args = 0, pretend = 0, frame = 16
 2918              		@ frame_needed = 1, uses_anonymous_args = 0
 2919              		@ link register save eliminated.
 2920 0000 80B4     		push	{r7}
 2921 0002 85B0     		sub	sp, sp, #20
 2922 0004 00AF     		add	r7, sp, #0
 2923 0006 7860     		str	r0, [r7, #4]
 2924 0008 0B46     		mov	r3, r1
 2925 000a 7B80     		strh	r3, [r7, #2]	@ movhi
 2926 000c 0023     		movs	r3, #0
 2927 000e FB81     		strh	r3, [r7, #14]	@ movhi
 2928 0010 7B68     		ldr	r3, [r7, #4]
 2929 0012 1B8C     		ldrh	r3, [r3, #32]	@ movhi
 2930 0014 FB81     		strh	r3, [r7, #14]	@ movhi
 2931 0016 FB89     		ldrh	r3, [r7, #14]	@ movhi
 2932 0018 23F00203 		bic	r3, r3, #2
 2933 001c FB81     		strh	r3, [r7, #14]	@ movhi
 2934 001e FA89     		ldrh	r2, [r7, #14]	@ movhi
 2935 0020 7B88     		ldrh	r3, [r7, #2]	@ movhi
 2936 0022 1343     		orrs	r3, r3, r2
 2937 0024 FB81     		strh	r3, [r7, #14]	@ movhi
 2938 0026 7B68     		ldr	r3, [r7, #4]
 2939 0028 FA89     		ldrh	r2, [r7, #14]	@ movhi
 2940 002a 1A84     		strh	r2, [r3, #32]	@ movhi
 2941 002c 00BF     		nop
 2942 002e 1437     		adds	r7, r7, #20
 2943 0030 BD46     		mov	sp, r7
 2944              		@ sp needed
 2945 0032 80BC     		pop	{r7}
 2946 0034 7047     		bx	lr
 2948              		.section	.text.TIM_OC1NPolarityConfig,"ax",%progbits
 2949              		.align	1
 2950              		.global	TIM_OC1NPolarityConfig
ARM GAS  C:\msys64\tmp\cc82fx43.s 			page 51


 2951              		.syntax unified
 2952              		.thumb
 2953              		.thumb_func
 2954              		.fpu softvfp
 2956              	TIM_OC1NPolarityConfig:
 2957              		@ args = 0, pretend = 0, frame = 16
 2958              		@ frame_needed = 1, uses_anonymous_args = 0
 2959              		@ link register save eliminated.
 2960 0000 80B4     		push	{r7}
 2961 0002 85B0     		sub	sp, sp, #20
 2962 0004 00AF     		add	r7, sp, #0
 2963 0006 7860     		str	r0, [r7, #4]
 2964 0008 0B46     		mov	r3, r1
 2965 000a 7B80     		strh	r3, [r7, #2]	@ movhi
 2966 000c 0023     		movs	r3, #0
 2967 000e FB81     		strh	r3, [r7, #14]	@ movhi
 2968 0010 7B68     		ldr	r3, [r7, #4]
 2969 0012 1B8C     		ldrh	r3, [r3, #32]	@ movhi
 2970 0014 FB81     		strh	r3, [r7, #14]	@ movhi
 2971 0016 FB89     		ldrh	r3, [r7, #14]	@ movhi
 2972 0018 23F00803 		bic	r3, r3, #8
 2973 001c FB81     		strh	r3, [r7, #14]	@ movhi
 2974 001e FA89     		ldrh	r2, [r7, #14]	@ movhi
 2975 0020 7B88     		ldrh	r3, [r7, #2]	@ movhi
 2976 0022 1343     		orrs	r3, r3, r2
 2977 0024 FB81     		strh	r3, [r7, #14]	@ movhi
 2978 0026 7B68     		ldr	r3, [r7, #4]
 2979 0028 FA89     		ldrh	r2, [r7, #14]	@ movhi
 2980 002a 1A84     		strh	r2, [r3, #32]	@ movhi
 2981 002c 00BF     		nop
 2982 002e 1437     		adds	r7, r7, #20
 2983 0030 BD46     		mov	sp, r7
 2984              		@ sp needed
 2985 0032 80BC     		pop	{r7}
 2986 0034 7047     		bx	lr
 2988              		.section	.text.TIM_OC2PolarityConfig,"ax",%progbits
 2989              		.align	1
 2990              		.global	TIM_OC2PolarityConfig
 2991              		.syntax unified
 2992              		.thumb
 2993              		.thumb_func
 2994              		.fpu softvfp
 2996              	TIM_OC2PolarityConfig:
 2997              		@ args = 0, pretend = 0, frame = 16
 2998              		@ frame_needed = 1, uses_anonymous_args = 0
 2999              		@ link register save eliminated.
 3000 0000 80B4     		push	{r7}
 3001 0002 85B0     		sub	sp, sp, #20
 3002 0004 00AF     		add	r7, sp, #0
 3003 0006 7860     		str	r0, [r7, #4]
 3004 0008 0B46     		mov	r3, r1
 3005 000a 7B80     		strh	r3, [r7, #2]	@ movhi
 3006 000c 0023     		movs	r3, #0
 3007 000e FB81     		strh	r3, [r7, #14]	@ movhi
 3008 0010 7B68     		ldr	r3, [r7, #4]
 3009 0012 1B8C     		ldrh	r3, [r3, #32]	@ movhi
 3010 0014 FB81     		strh	r3, [r7, #14]	@ movhi
ARM GAS  C:\msys64\tmp\cc82fx43.s 			page 52


 3011 0016 FB89     		ldrh	r3, [r7, #14]	@ movhi
 3012 0018 23F02003 		bic	r3, r3, #32
 3013 001c FB81     		strh	r3, [r7, #14]	@ movhi
 3014 001e 7B88     		ldrh	r3, [r7, #2]	@ movhi
 3015 0020 1B01     		lsls	r3, r3, #4
 3016 0022 9AB2     		uxth	r2, r3
 3017 0024 FB89     		ldrh	r3, [r7, #14]	@ movhi
 3018 0026 1343     		orrs	r3, r3, r2
 3019 0028 FB81     		strh	r3, [r7, #14]	@ movhi
 3020 002a 7B68     		ldr	r3, [r7, #4]
 3021 002c FA89     		ldrh	r2, [r7, #14]	@ movhi
 3022 002e 1A84     		strh	r2, [r3, #32]	@ movhi
 3023 0030 00BF     		nop
 3024 0032 1437     		adds	r7, r7, #20
 3025 0034 BD46     		mov	sp, r7
 3026              		@ sp needed
 3027 0036 80BC     		pop	{r7}
 3028 0038 7047     		bx	lr
 3030              		.section	.text.TIM_OC2NPolarityConfig,"ax",%progbits
 3031              		.align	1
 3032              		.global	TIM_OC2NPolarityConfig
 3033              		.syntax unified
 3034              		.thumb
 3035              		.thumb_func
 3036              		.fpu softvfp
 3038              	TIM_OC2NPolarityConfig:
 3039              		@ args = 0, pretend = 0, frame = 16
 3040              		@ frame_needed = 1, uses_anonymous_args = 0
 3041              		@ link register save eliminated.
 3042 0000 80B4     		push	{r7}
 3043 0002 85B0     		sub	sp, sp, #20
 3044 0004 00AF     		add	r7, sp, #0
 3045 0006 7860     		str	r0, [r7, #4]
 3046 0008 0B46     		mov	r3, r1
 3047 000a 7B80     		strh	r3, [r7, #2]	@ movhi
 3048 000c 0023     		movs	r3, #0
 3049 000e FB81     		strh	r3, [r7, #14]	@ movhi
 3050 0010 7B68     		ldr	r3, [r7, #4]
 3051 0012 1B8C     		ldrh	r3, [r3, #32]	@ movhi
 3052 0014 FB81     		strh	r3, [r7, #14]	@ movhi
 3053 0016 FB89     		ldrh	r3, [r7, #14]	@ movhi
 3054 0018 23F08003 		bic	r3, r3, #128
 3055 001c FB81     		strh	r3, [r7, #14]	@ movhi
 3056 001e 7B88     		ldrh	r3, [r7, #2]	@ movhi
 3057 0020 1B01     		lsls	r3, r3, #4
 3058 0022 9AB2     		uxth	r2, r3
 3059 0024 FB89     		ldrh	r3, [r7, #14]	@ movhi
 3060 0026 1343     		orrs	r3, r3, r2
 3061 0028 FB81     		strh	r3, [r7, #14]	@ movhi
 3062 002a 7B68     		ldr	r3, [r7, #4]
 3063 002c FA89     		ldrh	r2, [r7, #14]	@ movhi
 3064 002e 1A84     		strh	r2, [r3, #32]	@ movhi
 3065 0030 00BF     		nop
 3066 0032 1437     		adds	r7, r7, #20
 3067 0034 BD46     		mov	sp, r7
 3068              		@ sp needed
 3069 0036 80BC     		pop	{r7}
ARM GAS  C:\msys64\tmp\cc82fx43.s 			page 53


 3070 0038 7047     		bx	lr
 3072              		.section	.text.TIM_OC3PolarityConfig,"ax",%progbits
 3073              		.align	1
 3074              		.global	TIM_OC3PolarityConfig
 3075              		.syntax unified
 3076              		.thumb
 3077              		.thumb_func
 3078              		.fpu softvfp
 3080              	TIM_OC3PolarityConfig:
 3081              		@ args = 0, pretend = 0, frame = 16
 3082              		@ frame_needed = 1, uses_anonymous_args = 0
 3083              		@ link register save eliminated.
 3084 0000 80B4     		push	{r7}
 3085 0002 85B0     		sub	sp, sp, #20
 3086 0004 00AF     		add	r7, sp, #0
 3087 0006 7860     		str	r0, [r7, #4]
 3088 0008 0B46     		mov	r3, r1
 3089 000a 7B80     		strh	r3, [r7, #2]	@ movhi
 3090 000c 0023     		movs	r3, #0
 3091 000e FB81     		strh	r3, [r7, #14]	@ movhi
 3092 0010 7B68     		ldr	r3, [r7, #4]
 3093 0012 1B8C     		ldrh	r3, [r3, #32]	@ movhi
 3094 0014 FB81     		strh	r3, [r7, #14]	@ movhi
 3095 0016 FB89     		ldrh	r3, [r7, #14]	@ movhi
 3096 0018 23F40073 		bic	r3, r3, #512
 3097 001c FB81     		strh	r3, [r7, #14]	@ movhi
 3098 001e 7B88     		ldrh	r3, [r7, #2]	@ movhi
 3099 0020 1B02     		lsls	r3, r3, #8
 3100 0022 9AB2     		uxth	r2, r3
 3101 0024 FB89     		ldrh	r3, [r7, #14]	@ movhi
 3102 0026 1343     		orrs	r3, r3, r2
 3103 0028 FB81     		strh	r3, [r7, #14]	@ movhi
 3104 002a 7B68     		ldr	r3, [r7, #4]
 3105 002c FA89     		ldrh	r2, [r7, #14]	@ movhi
 3106 002e 1A84     		strh	r2, [r3, #32]	@ movhi
 3107 0030 00BF     		nop
 3108 0032 1437     		adds	r7, r7, #20
 3109 0034 BD46     		mov	sp, r7
 3110              		@ sp needed
 3111 0036 80BC     		pop	{r7}
 3112 0038 7047     		bx	lr
 3114              		.section	.text.TIM_OC3NPolarityConfig,"ax",%progbits
 3115              		.align	1
 3116              		.global	TIM_OC3NPolarityConfig
 3117              		.syntax unified
 3118              		.thumb
 3119              		.thumb_func
 3120              		.fpu softvfp
 3122              	TIM_OC3NPolarityConfig:
 3123              		@ args = 0, pretend = 0, frame = 16
 3124              		@ frame_needed = 1, uses_anonymous_args = 0
 3125              		@ link register save eliminated.
 3126 0000 80B4     		push	{r7}
 3127 0002 85B0     		sub	sp, sp, #20
 3128 0004 00AF     		add	r7, sp, #0
 3129 0006 7860     		str	r0, [r7, #4]
 3130 0008 0B46     		mov	r3, r1
ARM GAS  C:\msys64\tmp\cc82fx43.s 			page 54


 3131 000a 7B80     		strh	r3, [r7, #2]	@ movhi
 3132 000c 0023     		movs	r3, #0
 3133 000e FB81     		strh	r3, [r7, #14]	@ movhi
 3134 0010 7B68     		ldr	r3, [r7, #4]
 3135 0012 1B8C     		ldrh	r3, [r3, #32]	@ movhi
 3136 0014 FB81     		strh	r3, [r7, #14]	@ movhi
 3137 0016 FB89     		ldrh	r3, [r7, #14]	@ movhi
 3138 0018 23F40063 		bic	r3, r3, #2048
 3139 001c FB81     		strh	r3, [r7, #14]	@ movhi
 3140 001e 7B88     		ldrh	r3, [r7, #2]	@ movhi
 3141 0020 1B02     		lsls	r3, r3, #8
 3142 0022 9AB2     		uxth	r2, r3
 3143 0024 FB89     		ldrh	r3, [r7, #14]	@ movhi
 3144 0026 1343     		orrs	r3, r3, r2
 3145 0028 FB81     		strh	r3, [r7, #14]	@ movhi
 3146 002a 7B68     		ldr	r3, [r7, #4]
 3147 002c FA89     		ldrh	r2, [r7, #14]	@ movhi
 3148 002e 1A84     		strh	r2, [r3, #32]	@ movhi
 3149 0030 00BF     		nop
 3150 0032 1437     		adds	r7, r7, #20
 3151 0034 BD46     		mov	sp, r7
 3152              		@ sp needed
 3153 0036 80BC     		pop	{r7}
 3154 0038 7047     		bx	lr
 3156              		.section	.text.TIM_OC4PolarityConfig,"ax",%progbits
 3157              		.align	1
 3158              		.global	TIM_OC4PolarityConfig
 3159              		.syntax unified
 3160              		.thumb
 3161              		.thumb_func
 3162              		.fpu softvfp
 3164              	TIM_OC4PolarityConfig:
 3165              		@ args = 0, pretend = 0, frame = 16
 3166              		@ frame_needed = 1, uses_anonymous_args = 0
 3167              		@ link register save eliminated.
 3168 0000 80B4     		push	{r7}
 3169 0002 85B0     		sub	sp, sp, #20
 3170 0004 00AF     		add	r7, sp, #0
 3171 0006 7860     		str	r0, [r7, #4]
 3172 0008 0B46     		mov	r3, r1
 3173 000a 7B80     		strh	r3, [r7, #2]	@ movhi
 3174 000c 0023     		movs	r3, #0
 3175 000e FB81     		strh	r3, [r7, #14]	@ movhi
 3176 0010 7B68     		ldr	r3, [r7, #4]
 3177 0012 1B8C     		ldrh	r3, [r3, #32]	@ movhi
 3178 0014 FB81     		strh	r3, [r7, #14]	@ movhi
 3179 0016 FB89     		ldrh	r3, [r7, #14]	@ movhi
 3180 0018 23F40053 		bic	r3, r3, #8192
 3181 001c FB81     		strh	r3, [r7, #14]	@ movhi
 3182 001e 7B88     		ldrh	r3, [r7, #2]	@ movhi
 3183 0020 1B03     		lsls	r3, r3, #12
 3184 0022 9AB2     		uxth	r2, r3
 3185 0024 FB89     		ldrh	r3, [r7, #14]	@ movhi
 3186 0026 1343     		orrs	r3, r3, r2
 3187 0028 FB81     		strh	r3, [r7, #14]	@ movhi
 3188 002a 7B68     		ldr	r3, [r7, #4]
 3189 002c FA89     		ldrh	r2, [r7, #14]	@ movhi
ARM GAS  C:\msys64\tmp\cc82fx43.s 			page 55


 3190 002e 1A84     		strh	r2, [r3, #32]	@ movhi
 3191 0030 00BF     		nop
 3192 0032 1437     		adds	r7, r7, #20
 3193 0034 BD46     		mov	sp, r7
 3194              		@ sp needed
 3195 0036 80BC     		pop	{r7}
 3196 0038 7047     		bx	lr
 3198              		.section	.text.TIM_CCxCmd,"ax",%progbits
 3199              		.align	1
 3200              		.global	TIM_CCxCmd
 3201              		.syntax unified
 3202              		.thumb
 3203              		.thumb_func
 3204              		.fpu softvfp
 3206              	TIM_CCxCmd:
 3207              		@ args = 0, pretend = 0, frame = 16
 3208              		@ frame_needed = 1, uses_anonymous_args = 0
 3209              		@ link register save eliminated.
 3210 0000 80B4     		push	{r7}
 3211 0002 85B0     		sub	sp, sp, #20
 3212 0004 00AF     		add	r7, sp, #0
 3213 0006 7860     		str	r0, [r7, #4]
 3214 0008 0B46     		mov	r3, r1
 3215 000a 7B80     		strh	r3, [r7, #2]	@ movhi
 3216 000c 1346     		mov	r3, r2	@ movhi
 3217 000e 3B80     		strh	r3, [r7]	@ movhi
 3218 0010 0023     		movs	r3, #0
 3219 0012 FB81     		strh	r3, [r7, #14]	@ movhi
 3220 0014 7B88     		ldrh	r3, [r7, #2]
 3221 0016 0122     		movs	r2, #1
 3222 0018 02FA03F3 		lsl	r3, r2, r3
 3223 001c FB81     		strh	r3, [r7, #14]	@ movhi
 3224 001e 7B68     		ldr	r3, [r7, #4]
 3225 0020 1B8C     		ldrh	r3, [r3, #32]	@ movhi
 3226 0022 9AB2     		uxth	r2, r3
 3227 0024 FB89     		ldrh	r3, [r7, #14]	@ movhi
 3228 0026 DB43     		mvns	r3, r3
 3229 0028 9BB2     		uxth	r3, r3
 3230 002a 1340     		ands	r3, r3, r2
 3231 002c 9AB2     		uxth	r2, r3
 3232 002e 7B68     		ldr	r3, [r7, #4]
 3233 0030 1A84     		strh	r2, [r3, #32]	@ movhi
 3234 0032 7B68     		ldr	r3, [r7, #4]
 3235 0034 1B8C     		ldrh	r3, [r3, #32]	@ movhi
 3236 0036 9AB2     		uxth	r2, r3
 3237 0038 3988     		ldrh	r1, [r7]
 3238 003a 7B88     		ldrh	r3, [r7, #2]
 3239 003c 01FA03F3 		lsl	r3, r1, r3
 3240 0040 9BB2     		uxth	r3, r3
 3241 0042 1343     		orrs	r3, r3, r2
 3242 0044 9AB2     		uxth	r2, r3
 3243 0046 7B68     		ldr	r3, [r7, #4]
 3244 0048 1A84     		strh	r2, [r3, #32]	@ movhi
 3245 004a 00BF     		nop
 3246 004c 1437     		adds	r7, r7, #20
 3247 004e BD46     		mov	sp, r7
 3248              		@ sp needed
ARM GAS  C:\msys64\tmp\cc82fx43.s 			page 56


 3249 0050 80BC     		pop	{r7}
 3250 0052 7047     		bx	lr
 3252              		.section	.text.TIM_CCxNCmd,"ax",%progbits
 3253              		.align	1
 3254              		.global	TIM_CCxNCmd
 3255              		.syntax unified
 3256              		.thumb
 3257              		.thumb_func
 3258              		.fpu softvfp
 3260              	TIM_CCxNCmd:
 3261              		@ args = 0, pretend = 0, frame = 16
 3262              		@ frame_needed = 1, uses_anonymous_args = 0
 3263              		@ link register save eliminated.
 3264 0000 80B4     		push	{r7}
 3265 0002 85B0     		sub	sp, sp, #20
 3266 0004 00AF     		add	r7, sp, #0
 3267 0006 7860     		str	r0, [r7, #4]
 3268 0008 0B46     		mov	r3, r1
 3269 000a 7B80     		strh	r3, [r7, #2]	@ movhi
 3270 000c 1346     		mov	r3, r2	@ movhi
 3271 000e 3B80     		strh	r3, [r7]	@ movhi
 3272 0010 0023     		movs	r3, #0
 3273 0012 FB81     		strh	r3, [r7, #14]	@ movhi
 3274 0014 7B88     		ldrh	r3, [r7, #2]
 3275 0016 0422     		movs	r2, #4
 3276 0018 02FA03F3 		lsl	r3, r2, r3
 3277 001c FB81     		strh	r3, [r7, #14]	@ movhi
 3278 001e 7B68     		ldr	r3, [r7, #4]
 3279 0020 1B8C     		ldrh	r3, [r3, #32]	@ movhi
 3280 0022 9AB2     		uxth	r2, r3
 3281 0024 FB89     		ldrh	r3, [r7, #14]	@ movhi
 3282 0026 DB43     		mvns	r3, r3
 3283 0028 9BB2     		uxth	r3, r3
 3284 002a 1340     		ands	r3, r3, r2
 3285 002c 9AB2     		uxth	r2, r3
 3286 002e 7B68     		ldr	r3, [r7, #4]
 3287 0030 1A84     		strh	r2, [r3, #32]	@ movhi
 3288 0032 7B68     		ldr	r3, [r7, #4]
 3289 0034 1B8C     		ldrh	r3, [r3, #32]	@ movhi
 3290 0036 9AB2     		uxth	r2, r3
 3291 0038 3988     		ldrh	r1, [r7]
 3292 003a 7B88     		ldrh	r3, [r7, #2]
 3293 003c 01FA03F3 		lsl	r3, r1, r3
 3294 0040 9BB2     		uxth	r3, r3
 3295 0042 1343     		orrs	r3, r3, r2
 3296 0044 9AB2     		uxth	r2, r3
 3297 0046 7B68     		ldr	r3, [r7, #4]
 3298 0048 1A84     		strh	r2, [r3, #32]	@ movhi
 3299 004a 00BF     		nop
 3300 004c 1437     		adds	r7, r7, #20
 3301 004e BD46     		mov	sp, r7
 3302              		@ sp needed
 3303 0050 80BC     		pop	{r7}
 3304 0052 7047     		bx	lr
 3306              		.section	.text.TIM_SelectOCxM,"ax",%progbits
 3307              		.align	1
 3308              		.global	TIM_SelectOCxM
ARM GAS  C:\msys64\tmp\cc82fx43.s 			page 57


 3309              		.syntax unified
 3310              		.thumb
 3311              		.thumb_func
 3312              		.fpu softvfp
 3314              	TIM_SelectOCxM:
 3315              		@ args = 0, pretend = 0, frame = 16
 3316              		@ frame_needed = 1, uses_anonymous_args = 0
 3317              		@ link register save eliminated.
 3318 0000 80B4     		push	{r7}
 3319 0002 85B0     		sub	sp, sp, #20
 3320 0004 00AF     		add	r7, sp, #0
 3321 0006 7860     		str	r0, [r7, #4]
 3322 0008 0B46     		mov	r3, r1
 3323 000a 7B80     		strh	r3, [r7, #2]	@ movhi
 3324 000c 1346     		mov	r3, r2	@ movhi
 3325 000e 3B80     		strh	r3, [r7]	@ movhi
 3326 0010 0023     		movs	r3, #0
 3327 0012 FB60     		str	r3, [r7, #12]
 3328 0014 0023     		movs	r3, #0
 3329 0016 7B81     		strh	r3, [r7, #10]	@ movhi
 3330 0018 7B68     		ldr	r3, [r7, #4]
 3331 001a FB60     		str	r3, [r7, #12]
 3332 001c FB68     		ldr	r3, [r7, #12]
 3333 001e 1833     		adds	r3, r3, #24
 3334 0020 FB60     		str	r3, [r7, #12]
 3335 0022 7B88     		ldrh	r3, [r7, #2]
 3336 0024 0122     		movs	r2, #1
 3337 0026 02FA03F3 		lsl	r3, r2, r3
 3338 002a 7B81     		strh	r3, [r7, #10]	@ movhi
 3339 002c 7B68     		ldr	r3, [r7, #4]
 3340 002e 1B8C     		ldrh	r3, [r3, #32]	@ movhi
 3341 0030 9AB2     		uxth	r2, r3
 3342 0032 7B89     		ldrh	r3, [r7, #10]	@ movhi
 3343 0034 DB43     		mvns	r3, r3
 3344 0036 9BB2     		uxth	r3, r3
 3345 0038 1340     		ands	r3, r3, r2
 3346 003a 9AB2     		uxth	r2, r3
 3347 003c 7B68     		ldr	r3, [r7, #4]
 3348 003e 1A84     		strh	r2, [r3, #32]	@ movhi
 3349 0040 7B88     		ldrh	r3, [r7, #2]
 3350 0042 002B     		cmp	r3, #0
 3351 0044 02D0     		beq	.L141
 3352 0046 7B88     		ldrh	r3, [r7, #2]
 3353 0048 082B     		cmp	r3, #8
 3354 004a 13D1     		bne	.L142
 3355              	.L141:
 3356 004c 7B88     		ldrh	r3, [r7, #2]
 3357 004e 5B08     		lsrs	r3, r3, #1
 3358 0050 9BB2     		uxth	r3, r3
 3359 0052 1A46     		mov	r2, r3
 3360 0054 FB68     		ldr	r3, [r7, #12]
 3361 0056 1344     		add	r3, r3, r2
 3362 0058 FB60     		str	r3, [r7, #12]
 3363 005a FB68     		ldr	r3, [r7, #12]
 3364 005c 1A68     		ldr	r2, [r3]
 3365 005e FB68     		ldr	r3, [r7, #12]
 3366 0060 22F07002 		bic	r2, r2, #112
ARM GAS  C:\msys64\tmp\cc82fx43.s 			page 58


 3367 0064 1A60     		str	r2, [r3]
 3368 0066 FB68     		ldr	r3, [r7, #12]
 3369 0068 1968     		ldr	r1, [r3]
 3370 006a 3A88     		ldrh	r2, [r7]
 3371 006c FB68     		ldr	r3, [r7, #12]
 3372 006e 0A43     		orrs	r2, r2, r1
 3373 0070 1A60     		str	r2, [r3]
 3374 0072 18E0     		b	.L143
 3375              	.L142:
 3376 0074 7B88     		ldrh	r3, [r7, #2]	@ movhi
 3377 0076 043B     		subs	r3, r3, #4
 3378 0078 9BB2     		uxth	r3, r3
 3379 007a 5B08     		lsrs	r3, r3, #1
 3380 007c 9BB2     		uxth	r3, r3
 3381 007e 1A46     		mov	r2, r3
 3382 0080 FB68     		ldr	r3, [r7, #12]
 3383 0082 1344     		add	r3, r3, r2
 3384 0084 FB60     		str	r3, [r7, #12]
 3385 0086 FB68     		ldr	r3, [r7, #12]
 3386 0088 1A68     		ldr	r2, [r3]
 3387 008a FB68     		ldr	r3, [r7, #12]
 3388 008c 22F4E042 		bic	r2, r2, #28672
 3389 0090 1A60     		str	r2, [r3]
 3390 0092 FB68     		ldr	r3, [r7, #12]
 3391 0094 1A68     		ldr	r2, [r3]
 3392 0096 3B88     		ldrh	r3, [r7]	@ movhi
 3393 0098 1B02     		lsls	r3, r3, #8
 3394 009a 9BB2     		uxth	r3, r3
 3395 009c 1946     		mov	r1, r3
 3396 009e FB68     		ldr	r3, [r7, #12]
 3397 00a0 0A43     		orrs	r2, r2, r1
 3398 00a2 1A60     		str	r2, [r3]
 3399 00a4 00BF     		nop
 3400              	.L143:
 3401 00a6 00BF     		nop
 3402 00a8 1437     		adds	r7, r7, #20
 3403 00aa BD46     		mov	sp, r7
 3404              		@ sp needed
 3405 00ac 80BC     		pop	{r7}
 3406 00ae 7047     		bx	lr
 3408              		.section	.text.TIM_UpdateDisableConfig,"ax",%progbits
 3409              		.align	1
 3410              		.global	TIM_UpdateDisableConfig
 3411              		.syntax unified
 3412              		.thumb
 3413              		.thumb_func
 3414              		.fpu softvfp
 3416              	TIM_UpdateDisableConfig:
 3417              		@ args = 0, pretend = 0, frame = 8
 3418              		@ frame_needed = 1, uses_anonymous_args = 0
 3419              		@ link register save eliminated.
 3420 0000 80B4     		push	{r7}
 3421 0002 83B0     		sub	sp, sp, #12
 3422 0004 00AF     		add	r7, sp, #0
 3423 0006 7860     		str	r0, [r7, #4]
 3424 0008 0B46     		mov	r3, r1
 3425 000a FB70     		strb	r3, [r7, #3]
ARM GAS  C:\msys64\tmp\cc82fx43.s 			page 59


 3426 000c FB78     		ldrb	r3, [r7, #3]	@ zero_extendqisi2
 3427 000e 002B     		cmp	r3, #0
 3428 0010 08D0     		beq	.L145
 3429 0012 7B68     		ldr	r3, [r7, #4]
 3430 0014 1B88     		ldrh	r3, [r3]	@ movhi
 3431 0016 9BB2     		uxth	r3, r3
 3432 0018 43F00203 		orr	r3, r3, #2
 3433 001c 9AB2     		uxth	r2, r3
 3434 001e 7B68     		ldr	r3, [r7, #4]
 3435 0020 1A80     		strh	r2, [r3]	@ movhi
 3436 0022 07E0     		b	.L147
 3437              	.L145:
 3438 0024 7B68     		ldr	r3, [r7, #4]
 3439 0026 1B88     		ldrh	r3, [r3]	@ movhi
 3440 0028 9BB2     		uxth	r3, r3
 3441 002a 23F00203 		bic	r3, r3, #2
 3442 002e 9AB2     		uxth	r2, r3
 3443 0030 7B68     		ldr	r3, [r7, #4]
 3444 0032 1A80     		strh	r2, [r3]	@ movhi
 3445              	.L147:
 3446 0034 00BF     		nop
 3447 0036 0C37     		adds	r7, r7, #12
 3448 0038 BD46     		mov	sp, r7
 3449              		@ sp needed
 3450 003a 80BC     		pop	{r7}
 3451 003c 7047     		bx	lr
 3453              		.section	.text.TIM_UpdateRequestConfig,"ax",%progbits
 3454              		.align	1
 3455              		.global	TIM_UpdateRequestConfig
 3456              		.syntax unified
 3457              		.thumb
 3458              		.thumb_func
 3459              		.fpu softvfp
 3461              	TIM_UpdateRequestConfig:
 3462              		@ args = 0, pretend = 0, frame = 8
 3463              		@ frame_needed = 1, uses_anonymous_args = 0
 3464              		@ link register save eliminated.
 3465 0000 80B4     		push	{r7}
 3466 0002 83B0     		sub	sp, sp, #12
 3467 0004 00AF     		add	r7, sp, #0
 3468 0006 7860     		str	r0, [r7, #4]
 3469 0008 0B46     		mov	r3, r1
 3470 000a 7B80     		strh	r3, [r7, #2]	@ movhi
 3471 000c 7B88     		ldrh	r3, [r7, #2]
 3472 000e 002B     		cmp	r3, #0
 3473 0010 08D0     		beq	.L149
 3474 0012 7B68     		ldr	r3, [r7, #4]
 3475 0014 1B88     		ldrh	r3, [r3]	@ movhi
 3476 0016 9BB2     		uxth	r3, r3
 3477 0018 43F00403 		orr	r3, r3, #4
 3478 001c 9AB2     		uxth	r2, r3
 3479 001e 7B68     		ldr	r3, [r7, #4]
 3480 0020 1A80     		strh	r2, [r3]	@ movhi
 3481 0022 07E0     		b	.L151
 3482              	.L149:
 3483 0024 7B68     		ldr	r3, [r7, #4]
 3484 0026 1B88     		ldrh	r3, [r3]	@ movhi
ARM GAS  C:\msys64\tmp\cc82fx43.s 			page 60


 3485 0028 9BB2     		uxth	r3, r3
 3486 002a 23F00403 		bic	r3, r3, #4
 3487 002e 9AB2     		uxth	r2, r3
 3488 0030 7B68     		ldr	r3, [r7, #4]
 3489 0032 1A80     		strh	r2, [r3]	@ movhi
 3490              	.L151:
 3491 0034 00BF     		nop
 3492 0036 0C37     		adds	r7, r7, #12
 3493 0038 BD46     		mov	sp, r7
 3494              		@ sp needed
 3495 003a 80BC     		pop	{r7}
 3496 003c 7047     		bx	lr
 3498              		.section	.text.TIM_SelectHallSensor,"ax",%progbits
 3499              		.align	1
 3500              		.global	TIM_SelectHallSensor
 3501              		.syntax unified
 3502              		.thumb
 3503              		.thumb_func
 3504              		.fpu softvfp
 3506              	TIM_SelectHallSensor:
 3507              		@ args = 0, pretend = 0, frame = 8
 3508              		@ frame_needed = 1, uses_anonymous_args = 0
 3509              		@ link register save eliminated.
 3510 0000 80B4     		push	{r7}
 3511 0002 83B0     		sub	sp, sp, #12
 3512 0004 00AF     		add	r7, sp, #0
 3513 0006 7860     		str	r0, [r7, #4]
 3514 0008 0B46     		mov	r3, r1
 3515 000a FB70     		strb	r3, [r7, #3]
 3516 000c FB78     		ldrb	r3, [r7, #3]	@ zero_extendqisi2
 3517 000e 002B     		cmp	r3, #0
 3518 0010 08D0     		beq	.L153
 3519 0012 7B68     		ldr	r3, [r7, #4]
 3520 0014 9B88     		ldrh	r3, [r3, #4]	@ movhi
 3521 0016 9BB2     		uxth	r3, r3
 3522 0018 43F08003 		orr	r3, r3, #128
 3523 001c 9AB2     		uxth	r2, r3
 3524 001e 7B68     		ldr	r3, [r7, #4]
 3525 0020 9A80     		strh	r2, [r3, #4]	@ movhi
 3526 0022 07E0     		b	.L155
 3527              	.L153:
 3528 0024 7B68     		ldr	r3, [r7, #4]
 3529 0026 9B88     		ldrh	r3, [r3, #4]	@ movhi
 3530 0028 9BB2     		uxth	r3, r3
 3531 002a 23F08003 		bic	r3, r3, #128
 3532 002e 9AB2     		uxth	r2, r3
 3533 0030 7B68     		ldr	r3, [r7, #4]
 3534 0032 9A80     		strh	r2, [r3, #4]	@ movhi
 3535              	.L155:
 3536 0034 00BF     		nop
 3537 0036 0C37     		adds	r7, r7, #12
 3538 0038 BD46     		mov	sp, r7
 3539              		@ sp needed
 3540 003a 80BC     		pop	{r7}
 3541 003c 7047     		bx	lr
 3543              		.section	.text.TIM_SelectOnePulseMode,"ax",%progbits
 3544              		.align	1
ARM GAS  C:\msys64\tmp\cc82fx43.s 			page 61


 3545              		.global	TIM_SelectOnePulseMode
 3546              		.syntax unified
 3547              		.thumb
 3548              		.thumb_func
 3549              		.fpu softvfp
 3551              	TIM_SelectOnePulseMode:
 3552              		@ args = 0, pretend = 0, frame = 8
 3553              		@ frame_needed = 1, uses_anonymous_args = 0
 3554              		@ link register save eliminated.
 3555 0000 80B4     		push	{r7}
 3556 0002 83B0     		sub	sp, sp, #12
 3557 0004 00AF     		add	r7, sp, #0
 3558 0006 7860     		str	r0, [r7, #4]
 3559 0008 0B46     		mov	r3, r1
 3560 000a 7B80     		strh	r3, [r7, #2]	@ movhi
 3561 000c 7B68     		ldr	r3, [r7, #4]
 3562 000e 1B88     		ldrh	r3, [r3]	@ movhi
 3563 0010 9BB2     		uxth	r3, r3
 3564 0012 23F00803 		bic	r3, r3, #8
 3565 0016 9AB2     		uxth	r2, r3
 3566 0018 7B68     		ldr	r3, [r7, #4]
 3567 001a 1A80     		strh	r2, [r3]	@ movhi
 3568 001c 7B68     		ldr	r3, [r7, #4]
 3569 001e 1B88     		ldrh	r3, [r3]	@ movhi
 3570 0020 9AB2     		uxth	r2, r3
 3571 0022 7B88     		ldrh	r3, [r7, #2]	@ movhi
 3572 0024 1343     		orrs	r3, r3, r2
 3573 0026 9AB2     		uxth	r2, r3
 3574 0028 7B68     		ldr	r3, [r7, #4]
 3575 002a 1A80     		strh	r2, [r3]	@ movhi
 3576 002c 00BF     		nop
 3577 002e 0C37     		adds	r7, r7, #12
 3578 0030 BD46     		mov	sp, r7
 3579              		@ sp needed
 3580 0032 80BC     		pop	{r7}
 3581 0034 7047     		bx	lr
 3583              		.section	.text.TIM_SelectOutputTrigger,"ax",%progbits
 3584              		.align	1
 3585              		.global	TIM_SelectOutputTrigger
 3586              		.syntax unified
 3587              		.thumb
 3588              		.thumb_func
 3589              		.fpu softvfp
 3591              	TIM_SelectOutputTrigger:
 3592              		@ args = 0, pretend = 0, frame = 8
 3593              		@ frame_needed = 1, uses_anonymous_args = 0
 3594              		@ link register save eliminated.
 3595 0000 80B4     		push	{r7}
 3596 0002 83B0     		sub	sp, sp, #12
 3597 0004 00AF     		add	r7, sp, #0
 3598 0006 7860     		str	r0, [r7, #4]
 3599 0008 0B46     		mov	r3, r1
 3600 000a 7B80     		strh	r3, [r7, #2]	@ movhi
 3601 000c 7B68     		ldr	r3, [r7, #4]
 3602 000e 9B88     		ldrh	r3, [r3, #4]	@ movhi
 3603 0010 9BB2     		uxth	r3, r3
 3604 0012 23F07003 		bic	r3, r3, #112
ARM GAS  C:\msys64\tmp\cc82fx43.s 			page 62


 3605 0016 9AB2     		uxth	r2, r3
 3606 0018 7B68     		ldr	r3, [r7, #4]
 3607 001a 9A80     		strh	r2, [r3, #4]	@ movhi
 3608 001c 7B68     		ldr	r3, [r7, #4]
 3609 001e 9B88     		ldrh	r3, [r3, #4]	@ movhi
 3610 0020 9AB2     		uxth	r2, r3
 3611 0022 7B88     		ldrh	r3, [r7, #2]	@ movhi
 3612 0024 1343     		orrs	r3, r3, r2
 3613 0026 9AB2     		uxth	r2, r3
 3614 0028 7B68     		ldr	r3, [r7, #4]
 3615 002a 9A80     		strh	r2, [r3, #4]	@ movhi
 3616 002c 00BF     		nop
 3617 002e 0C37     		adds	r7, r7, #12
 3618 0030 BD46     		mov	sp, r7
 3619              		@ sp needed
 3620 0032 80BC     		pop	{r7}
 3621 0034 7047     		bx	lr
 3623              		.section	.text.TIM_SelectSlaveMode,"ax",%progbits
 3624              		.align	1
 3625              		.global	TIM_SelectSlaveMode
 3626              		.syntax unified
 3627              		.thumb
 3628              		.thumb_func
 3629              		.fpu softvfp
 3631              	TIM_SelectSlaveMode:
 3632              		@ args = 0, pretend = 0, frame = 8
 3633              		@ frame_needed = 1, uses_anonymous_args = 0
 3634              		@ link register save eliminated.
 3635 0000 80B4     		push	{r7}
 3636 0002 83B0     		sub	sp, sp, #12
 3637 0004 00AF     		add	r7, sp, #0
 3638 0006 7860     		str	r0, [r7, #4]
 3639 0008 0B46     		mov	r3, r1
 3640 000a 7B80     		strh	r3, [r7, #2]	@ movhi
 3641 000c 7B68     		ldr	r3, [r7, #4]
 3642 000e 1B89     		ldrh	r3, [r3, #8]	@ movhi
 3643 0010 9BB2     		uxth	r3, r3
 3644 0012 23F00703 		bic	r3, r3, #7
 3645 0016 9AB2     		uxth	r2, r3
 3646 0018 7B68     		ldr	r3, [r7, #4]
 3647 001a 1A81     		strh	r2, [r3, #8]	@ movhi
 3648 001c 7B68     		ldr	r3, [r7, #4]
 3649 001e 1B89     		ldrh	r3, [r3, #8]	@ movhi
 3650 0020 9AB2     		uxth	r2, r3
 3651 0022 7B88     		ldrh	r3, [r7, #2]	@ movhi
 3652 0024 1343     		orrs	r3, r3, r2
 3653 0026 9AB2     		uxth	r2, r3
 3654 0028 7B68     		ldr	r3, [r7, #4]
 3655 002a 1A81     		strh	r2, [r3, #8]	@ movhi
 3656 002c 00BF     		nop
 3657 002e 0C37     		adds	r7, r7, #12
 3658 0030 BD46     		mov	sp, r7
 3659              		@ sp needed
 3660 0032 80BC     		pop	{r7}
 3661 0034 7047     		bx	lr
 3663              		.section	.text.TIM_SelectMasterSlaveMode,"ax",%progbits
 3664              		.align	1
ARM GAS  C:\msys64\tmp\cc82fx43.s 			page 63


 3665              		.global	TIM_SelectMasterSlaveMode
 3666              		.syntax unified
 3667              		.thumb
 3668              		.thumb_func
 3669              		.fpu softvfp
 3671              	TIM_SelectMasterSlaveMode:
 3672              		@ args = 0, pretend = 0, frame = 8
 3673              		@ frame_needed = 1, uses_anonymous_args = 0
 3674              		@ link register save eliminated.
 3675 0000 80B4     		push	{r7}
 3676 0002 83B0     		sub	sp, sp, #12
 3677 0004 00AF     		add	r7, sp, #0
 3678 0006 7860     		str	r0, [r7, #4]
 3679 0008 0B46     		mov	r3, r1
 3680 000a 7B80     		strh	r3, [r7, #2]	@ movhi
 3681 000c 7B68     		ldr	r3, [r7, #4]
 3682 000e 1B89     		ldrh	r3, [r3, #8]	@ movhi
 3683 0010 9BB2     		uxth	r3, r3
 3684 0012 23F08003 		bic	r3, r3, #128
 3685 0016 9AB2     		uxth	r2, r3
 3686 0018 7B68     		ldr	r3, [r7, #4]
 3687 001a 1A81     		strh	r2, [r3, #8]	@ movhi
 3688 001c 7B68     		ldr	r3, [r7, #4]
 3689 001e 1B89     		ldrh	r3, [r3, #8]	@ movhi
 3690 0020 9AB2     		uxth	r2, r3
 3691 0022 7B88     		ldrh	r3, [r7, #2]	@ movhi
 3692 0024 1343     		orrs	r3, r3, r2
 3693 0026 9AB2     		uxth	r2, r3
 3694 0028 7B68     		ldr	r3, [r7, #4]
 3695 002a 1A81     		strh	r2, [r3, #8]	@ movhi
 3696 002c 00BF     		nop
 3697 002e 0C37     		adds	r7, r7, #12
 3698 0030 BD46     		mov	sp, r7
 3699              		@ sp needed
 3700 0032 80BC     		pop	{r7}
 3701 0034 7047     		bx	lr
 3703              		.section	.text.TIM_SetCounter,"ax",%progbits
 3704              		.align	1
 3705              		.global	TIM_SetCounter
 3706              		.syntax unified
 3707              		.thumb
 3708              		.thumb_func
 3709              		.fpu softvfp
 3711              	TIM_SetCounter:
 3712              		@ args = 0, pretend = 0, frame = 8
 3713              		@ frame_needed = 1, uses_anonymous_args = 0
 3714              		@ link register save eliminated.
 3715 0000 80B4     		push	{r7}
 3716 0002 83B0     		sub	sp, sp, #12
 3717 0004 00AF     		add	r7, sp, #0
 3718 0006 7860     		str	r0, [r7, #4]
 3719 0008 0B46     		mov	r3, r1
 3720 000a 7B80     		strh	r3, [r7, #2]	@ movhi
 3721 000c 7B68     		ldr	r3, [r7, #4]
 3722 000e 7A88     		ldrh	r2, [r7, #2]	@ movhi
 3723 0010 9A84     		strh	r2, [r3, #36]	@ movhi
 3724 0012 00BF     		nop
ARM GAS  C:\msys64\tmp\cc82fx43.s 			page 64


 3725 0014 0C37     		adds	r7, r7, #12
 3726 0016 BD46     		mov	sp, r7
 3727              		@ sp needed
 3728 0018 80BC     		pop	{r7}
 3729 001a 7047     		bx	lr
 3731              		.section	.text.TIM_SetAutoreload,"ax",%progbits
 3732              		.align	1
 3733              		.global	TIM_SetAutoreload
 3734              		.syntax unified
 3735              		.thumb
 3736              		.thumb_func
 3737              		.fpu softvfp
 3739              	TIM_SetAutoreload:
 3740              		@ args = 0, pretend = 0, frame = 8
 3741              		@ frame_needed = 1, uses_anonymous_args = 0
 3742              		@ link register save eliminated.
 3743 0000 80B4     		push	{r7}
 3744 0002 83B0     		sub	sp, sp, #12
 3745 0004 00AF     		add	r7, sp, #0
 3746 0006 7860     		str	r0, [r7, #4]
 3747 0008 0B46     		mov	r3, r1
 3748 000a 7B80     		strh	r3, [r7, #2]	@ movhi
 3749 000c 7B68     		ldr	r3, [r7, #4]
 3750 000e 7A88     		ldrh	r2, [r7, #2]	@ movhi
 3751 0010 9A85     		strh	r2, [r3, #44]	@ movhi
 3752 0012 00BF     		nop
 3753 0014 0C37     		adds	r7, r7, #12
 3754 0016 BD46     		mov	sp, r7
 3755              		@ sp needed
 3756 0018 80BC     		pop	{r7}
 3757 001a 7047     		bx	lr
 3759              		.section	.text.TIM_SetCompare1,"ax",%progbits
 3760              		.align	1
 3761              		.global	TIM_SetCompare1
 3762              		.syntax unified
 3763              		.thumb
 3764              		.thumb_func
 3765              		.fpu softvfp
 3767              	TIM_SetCompare1:
 3768              		@ args = 0, pretend = 0, frame = 8
 3769              		@ frame_needed = 1, uses_anonymous_args = 0
 3770              		@ link register save eliminated.
 3771 0000 80B4     		push	{r7}
 3772 0002 83B0     		sub	sp, sp, #12
 3773 0004 00AF     		add	r7, sp, #0
 3774 0006 7860     		str	r0, [r7, #4]
 3775 0008 0B46     		mov	r3, r1
 3776 000a 7B80     		strh	r3, [r7, #2]	@ movhi
 3777 000c 7B68     		ldr	r3, [r7, #4]
 3778 000e 7A88     		ldrh	r2, [r7, #2]	@ movhi
 3779 0010 9A86     		strh	r2, [r3, #52]	@ movhi
 3780 0012 00BF     		nop
 3781 0014 0C37     		adds	r7, r7, #12
 3782 0016 BD46     		mov	sp, r7
 3783              		@ sp needed
 3784 0018 80BC     		pop	{r7}
 3785 001a 7047     		bx	lr
ARM GAS  C:\msys64\tmp\cc82fx43.s 			page 65


 3787              		.section	.text.TIM_SetCompare2,"ax",%progbits
 3788              		.align	1
 3789              		.global	TIM_SetCompare2
 3790              		.syntax unified
 3791              		.thumb
 3792              		.thumb_func
 3793              		.fpu softvfp
 3795              	TIM_SetCompare2:
 3796              		@ args = 0, pretend = 0, frame = 8
 3797              		@ frame_needed = 1, uses_anonymous_args = 0
 3798              		@ link register save eliminated.
 3799 0000 80B4     		push	{r7}
 3800 0002 83B0     		sub	sp, sp, #12
 3801 0004 00AF     		add	r7, sp, #0
 3802 0006 7860     		str	r0, [r7, #4]
 3803 0008 0B46     		mov	r3, r1
 3804 000a 7B80     		strh	r3, [r7, #2]	@ movhi
 3805 000c 7B68     		ldr	r3, [r7, #4]
 3806 000e 7A88     		ldrh	r2, [r7, #2]	@ movhi
 3807 0010 1A87     		strh	r2, [r3, #56]	@ movhi
 3808 0012 00BF     		nop
 3809 0014 0C37     		adds	r7, r7, #12
 3810 0016 BD46     		mov	sp, r7
 3811              		@ sp needed
 3812 0018 80BC     		pop	{r7}
 3813 001a 7047     		bx	lr
 3815              		.section	.text.TIM_SetCompare3,"ax",%progbits
 3816              		.align	1
 3817              		.global	TIM_SetCompare3
 3818              		.syntax unified
 3819              		.thumb
 3820              		.thumb_func
 3821              		.fpu softvfp
 3823              	TIM_SetCompare3:
 3824              		@ args = 0, pretend = 0, frame = 8
 3825              		@ frame_needed = 1, uses_anonymous_args = 0
 3826              		@ link register save eliminated.
 3827 0000 80B4     		push	{r7}
 3828 0002 83B0     		sub	sp, sp, #12
 3829 0004 00AF     		add	r7, sp, #0
 3830 0006 7860     		str	r0, [r7, #4]
 3831 0008 0B46     		mov	r3, r1
 3832 000a 7B80     		strh	r3, [r7, #2]	@ movhi
 3833 000c 7B68     		ldr	r3, [r7, #4]
 3834 000e 7A88     		ldrh	r2, [r7, #2]	@ movhi
 3835 0010 9A87     		strh	r2, [r3, #60]	@ movhi
 3836 0012 00BF     		nop
 3837 0014 0C37     		adds	r7, r7, #12
 3838 0016 BD46     		mov	sp, r7
 3839              		@ sp needed
 3840 0018 80BC     		pop	{r7}
 3841 001a 7047     		bx	lr
 3843              		.section	.text.TIM_SetCompare4,"ax",%progbits
 3844              		.align	1
 3845              		.global	TIM_SetCompare4
 3846              		.syntax unified
 3847              		.thumb
ARM GAS  C:\msys64\tmp\cc82fx43.s 			page 66


 3848              		.thumb_func
 3849              		.fpu softvfp
 3851              	TIM_SetCompare4:
 3852              		@ args = 0, pretend = 0, frame = 8
 3853              		@ frame_needed = 1, uses_anonymous_args = 0
 3854              		@ link register save eliminated.
 3855 0000 80B4     		push	{r7}
 3856 0002 83B0     		sub	sp, sp, #12
 3857 0004 00AF     		add	r7, sp, #0
 3858 0006 7860     		str	r0, [r7, #4]
 3859 0008 0B46     		mov	r3, r1
 3860 000a 7B80     		strh	r3, [r7, #2]	@ movhi
 3861 000c 7B68     		ldr	r3, [r7, #4]
 3862 000e 7A88     		ldrh	r2, [r7, #2]	@ movhi
 3863 0010 A3F84020 		strh	r2, [r3, #64]	@ movhi
 3864 0014 00BF     		nop
 3865 0016 0C37     		adds	r7, r7, #12
 3866 0018 BD46     		mov	sp, r7
 3867              		@ sp needed
 3868 001a 80BC     		pop	{r7}
 3869 001c 7047     		bx	lr
 3871              		.section	.text.TIM_SetIC1Prescaler,"ax",%progbits
 3872              		.align	1
 3873              		.global	TIM_SetIC1Prescaler
 3874              		.syntax unified
 3875              		.thumb
 3876              		.thumb_func
 3877              		.fpu softvfp
 3879              	TIM_SetIC1Prescaler:
 3880              		@ args = 0, pretend = 0, frame = 8
 3881              		@ frame_needed = 1, uses_anonymous_args = 0
 3882              		@ link register save eliminated.
 3883 0000 80B4     		push	{r7}
 3884 0002 83B0     		sub	sp, sp, #12
 3885 0004 00AF     		add	r7, sp, #0
 3886 0006 7860     		str	r0, [r7, #4]
 3887 0008 0B46     		mov	r3, r1
 3888 000a 7B80     		strh	r3, [r7, #2]	@ movhi
 3889 000c 7B68     		ldr	r3, [r7, #4]
 3890 000e 1B8B     		ldrh	r3, [r3, #24]	@ movhi
 3891 0010 9BB2     		uxth	r3, r3
 3892 0012 23F00C03 		bic	r3, r3, #12
 3893 0016 9AB2     		uxth	r2, r3
 3894 0018 7B68     		ldr	r3, [r7, #4]
 3895 001a 1A83     		strh	r2, [r3, #24]	@ movhi
 3896 001c 7B68     		ldr	r3, [r7, #4]
 3897 001e 1B8B     		ldrh	r3, [r3, #24]	@ movhi
 3898 0020 9AB2     		uxth	r2, r3
 3899 0022 7B88     		ldrh	r3, [r7, #2]	@ movhi
 3900 0024 1343     		orrs	r3, r3, r2
 3901 0026 9AB2     		uxth	r2, r3
 3902 0028 7B68     		ldr	r3, [r7, #4]
 3903 002a 1A83     		strh	r2, [r3, #24]	@ movhi
 3904 002c 00BF     		nop
 3905 002e 0C37     		adds	r7, r7, #12
 3906 0030 BD46     		mov	sp, r7
 3907              		@ sp needed
ARM GAS  C:\msys64\tmp\cc82fx43.s 			page 67


 3908 0032 80BC     		pop	{r7}
 3909 0034 7047     		bx	lr
 3911              		.section	.text.TIM_SetIC2Prescaler,"ax",%progbits
 3912              		.align	1
 3913              		.global	TIM_SetIC2Prescaler
 3914              		.syntax unified
 3915              		.thumb
 3916              		.thumb_func
 3917              		.fpu softvfp
 3919              	TIM_SetIC2Prescaler:
 3920              		@ args = 0, pretend = 0, frame = 8
 3921              		@ frame_needed = 1, uses_anonymous_args = 0
 3922              		@ link register save eliminated.
 3923 0000 80B4     		push	{r7}
 3924 0002 83B0     		sub	sp, sp, #12
 3925 0004 00AF     		add	r7, sp, #0
 3926 0006 7860     		str	r0, [r7, #4]
 3927 0008 0B46     		mov	r3, r1
 3928 000a 7B80     		strh	r3, [r7, #2]	@ movhi
 3929 000c 7B68     		ldr	r3, [r7, #4]
 3930 000e 1B8B     		ldrh	r3, [r3, #24]	@ movhi
 3931 0010 9BB2     		uxth	r3, r3
 3932 0012 23F44063 		bic	r3, r3, #3072
 3933 0016 9AB2     		uxth	r2, r3
 3934 0018 7B68     		ldr	r3, [r7, #4]
 3935 001a 1A83     		strh	r2, [r3, #24]	@ movhi
 3936 001c 7B68     		ldr	r3, [r7, #4]
 3937 001e 1B8B     		ldrh	r3, [r3, #24]	@ movhi
 3938 0020 9AB2     		uxth	r2, r3
 3939 0022 7B88     		ldrh	r3, [r7, #2]	@ movhi
 3940 0024 1B02     		lsls	r3, r3, #8
 3941 0026 9BB2     		uxth	r3, r3
 3942 0028 1343     		orrs	r3, r3, r2
 3943 002a 9AB2     		uxth	r2, r3
 3944 002c 7B68     		ldr	r3, [r7, #4]
 3945 002e 1A83     		strh	r2, [r3, #24]	@ movhi
 3946 0030 00BF     		nop
 3947 0032 0C37     		adds	r7, r7, #12
 3948 0034 BD46     		mov	sp, r7
 3949              		@ sp needed
 3950 0036 80BC     		pop	{r7}
 3951 0038 7047     		bx	lr
 3953              		.section	.text.TIM_SetIC3Prescaler,"ax",%progbits
 3954              		.align	1
 3955              		.global	TIM_SetIC3Prescaler
 3956              		.syntax unified
 3957              		.thumb
 3958              		.thumb_func
 3959              		.fpu softvfp
 3961              	TIM_SetIC3Prescaler:
 3962              		@ args = 0, pretend = 0, frame = 8
 3963              		@ frame_needed = 1, uses_anonymous_args = 0
 3964              		@ link register save eliminated.
 3965 0000 80B4     		push	{r7}
 3966 0002 83B0     		sub	sp, sp, #12
 3967 0004 00AF     		add	r7, sp, #0
 3968 0006 7860     		str	r0, [r7, #4]
ARM GAS  C:\msys64\tmp\cc82fx43.s 			page 68


 3969 0008 0B46     		mov	r3, r1
 3970 000a 7B80     		strh	r3, [r7, #2]	@ movhi
 3971 000c 7B68     		ldr	r3, [r7, #4]
 3972 000e 9B8B     		ldrh	r3, [r3, #28]	@ movhi
 3973 0010 9BB2     		uxth	r3, r3
 3974 0012 23F00C03 		bic	r3, r3, #12
 3975 0016 9AB2     		uxth	r2, r3
 3976 0018 7B68     		ldr	r3, [r7, #4]
 3977 001a 9A83     		strh	r2, [r3, #28]	@ movhi
 3978 001c 7B68     		ldr	r3, [r7, #4]
 3979 001e 9B8B     		ldrh	r3, [r3, #28]	@ movhi
 3980 0020 9AB2     		uxth	r2, r3
 3981 0022 7B88     		ldrh	r3, [r7, #2]	@ movhi
 3982 0024 1343     		orrs	r3, r3, r2
 3983 0026 9AB2     		uxth	r2, r3
 3984 0028 7B68     		ldr	r3, [r7, #4]
 3985 002a 9A83     		strh	r2, [r3, #28]	@ movhi
 3986 002c 00BF     		nop
 3987 002e 0C37     		adds	r7, r7, #12
 3988 0030 BD46     		mov	sp, r7
 3989              		@ sp needed
 3990 0032 80BC     		pop	{r7}
 3991 0034 7047     		bx	lr
 3993              		.section	.text.TIM_SetIC4Prescaler,"ax",%progbits
 3994              		.align	1
 3995              		.global	TIM_SetIC4Prescaler
 3996              		.syntax unified
 3997              		.thumb
 3998              		.thumb_func
 3999              		.fpu softvfp
 4001              	TIM_SetIC4Prescaler:
 4002              		@ args = 0, pretend = 0, frame = 8
 4003              		@ frame_needed = 1, uses_anonymous_args = 0
 4004              		@ link register save eliminated.
 4005 0000 80B4     		push	{r7}
 4006 0002 83B0     		sub	sp, sp, #12
 4007 0004 00AF     		add	r7, sp, #0
 4008 0006 7860     		str	r0, [r7, #4]
 4009 0008 0B46     		mov	r3, r1
 4010 000a 7B80     		strh	r3, [r7, #2]	@ movhi
 4011 000c 7B68     		ldr	r3, [r7, #4]
 4012 000e 9B8B     		ldrh	r3, [r3, #28]	@ movhi
 4013 0010 9BB2     		uxth	r3, r3
 4014 0012 23F44063 		bic	r3, r3, #3072
 4015 0016 9AB2     		uxth	r2, r3
 4016 0018 7B68     		ldr	r3, [r7, #4]
 4017 001a 9A83     		strh	r2, [r3, #28]	@ movhi
 4018 001c 7B68     		ldr	r3, [r7, #4]
 4019 001e 9B8B     		ldrh	r3, [r3, #28]	@ movhi
 4020 0020 9AB2     		uxth	r2, r3
 4021 0022 7B88     		ldrh	r3, [r7, #2]	@ movhi
 4022 0024 1B02     		lsls	r3, r3, #8
 4023 0026 9BB2     		uxth	r3, r3
 4024 0028 1343     		orrs	r3, r3, r2
 4025 002a 9AB2     		uxth	r2, r3
 4026 002c 7B68     		ldr	r3, [r7, #4]
 4027 002e 9A83     		strh	r2, [r3, #28]	@ movhi
ARM GAS  C:\msys64\tmp\cc82fx43.s 			page 69


 4028 0030 00BF     		nop
 4029 0032 0C37     		adds	r7, r7, #12
 4030 0034 BD46     		mov	sp, r7
 4031              		@ sp needed
 4032 0036 80BC     		pop	{r7}
 4033 0038 7047     		bx	lr
 4035              		.section	.text.TIM_SetClockDivision,"ax",%progbits
 4036              		.align	1
 4037              		.global	TIM_SetClockDivision
 4038              		.syntax unified
 4039              		.thumb
 4040              		.thumb_func
 4041              		.fpu softvfp
 4043              	TIM_SetClockDivision:
 4044              		@ args = 0, pretend = 0, frame = 8
 4045              		@ frame_needed = 1, uses_anonymous_args = 0
 4046              		@ link register save eliminated.
 4047 0000 80B4     		push	{r7}
 4048 0002 83B0     		sub	sp, sp, #12
 4049 0004 00AF     		add	r7, sp, #0
 4050 0006 7860     		str	r0, [r7, #4]
 4051 0008 0B46     		mov	r3, r1
 4052 000a 7B80     		strh	r3, [r7, #2]	@ movhi
 4053 000c 7B68     		ldr	r3, [r7, #4]
 4054 000e 1B88     		ldrh	r3, [r3]	@ movhi
 4055 0010 9BB2     		uxth	r3, r3
 4056 0012 23F44073 		bic	r3, r3, #768
 4057 0016 9AB2     		uxth	r2, r3
 4058 0018 7B68     		ldr	r3, [r7, #4]
 4059 001a 1A80     		strh	r2, [r3]	@ movhi
 4060 001c 7B68     		ldr	r3, [r7, #4]
 4061 001e 1B88     		ldrh	r3, [r3]	@ movhi
 4062 0020 9AB2     		uxth	r2, r3
 4063 0022 7B88     		ldrh	r3, [r7, #2]	@ movhi
 4064 0024 1343     		orrs	r3, r3, r2
 4065 0026 9AB2     		uxth	r2, r3
 4066 0028 7B68     		ldr	r3, [r7, #4]
 4067 002a 1A80     		strh	r2, [r3]	@ movhi
 4068 002c 00BF     		nop
 4069 002e 0C37     		adds	r7, r7, #12
 4070 0030 BD46     		mov	sp, r7
 4071              		@ sp needed
 4072 0032 80BC     		pop	{r7}
 4073 0034 7047     		bx	lr
 4075              		.section	.text.TIM_GetCapture1,"ax",%progbits
 4076              		.align	1
 4077              		.global	TIM_GetCapture1
 4078              		.syntax unified
 4079              		.thumb
 4080              		.thumb_func
 4081              		.fpu softvfp
 4083              	TIM_GetCapture1:
 4084              		@ args = 0, pretend = 0, frame = 8
 4085              		@ frame_needed = 1, uses_anonymous_args = 0
 4086              		@ link register save eliminated.
 4087 0000 80B4     		push	{r7}
 4088 0002 83B0     		sub	sp, sp, #12
ARM GAS  C:\msys64\tmp\cc82fx43.s 			page 70


 4089 0004 00AF     		add	r7, sp, #0
 4090 0006 7860     		str	r0, [r7, #4]
 4091 0008 7B68     		ldr	r3, [r7, #4]
 4092 000a 9B8E     		ldrh	r3, [r3, #52]	@ movhi
 4093 000c 9BB2     		uxth	r3, r3
 4094 000e 1846     		mov	r0, r3
 4095 0010 0C37     		adds	r7, r7, #12
 4096 0012 BD46     		mov	sp, r7
 4097              		@ sp needed
 4098 0014 80BC     		pop	{r7}
 4099 0016 7047     		bx	lr
 4101              		.section	.text.TIM_GetCapture2,"ax",%progbits
 4102              		.align	1
 4103              		.global	TIM_GetCapture2
 4104              		.syntax unified
 4105              		.thumb
 4106              		.thumb_func
 4107              		.fpu softvfp
 4109              	TIM_GetCapture2:
 4110              		@ args = 0, pretend = 0, frame = 8
 4111              		@ frame_needed = 1, uses_anonymous_args = 0
 4112              		@ link register save eliminated.
 4113 0000 80B4     		push	{r7}
 4114 0002 83B0     		sub	sp, sp, #12
 4115 0004 00AF     		add	r7, sp, #0
 4116 0006 7860     		str	r0, [r7, #4]
 4117 0008 7B68     		ldr	r3, [r7, #4]
 4118 000a 1B8F     		ldrh	r3, [r3, #56]	@ movhi
 4119 000c 9BB2     		uxth	r3, r3
 4120 000e 1846     		mov	r0, r3
 4121 0010 0C37     		adds	r7, r7, #12
 4122 0012 BD46     		mov	sp, r7
 4123              		@ sp needed
 4124 0014 80BC     		pop	{r7}
 4125 0016 7047     		bx	lr
 4127              		.section	.text.TIM_GetCapture3,"ax",%progbits
 4128              		.align	1
 4129              		.global	TIM_GetCapture3
 4130              		.syntax unified
 4131              		.thumb
 4132              		.thumb_func
 4133              		.fpu softvfp
 4135              	TIM_GetCapture3:
 4136              		@ args = 0, pretend = 0, frame = 8
 4137              		@ frame_needed = 1, uses_anonymous_args = 0
 4138              		@ link register save eliminated.
 4139 0000 80B4     		push	{r7}
 4140 0002 83B0     		sub	sp, sp, #12
 4141 0004 00AF     		add	r7, sp, #0
 4142 0006 7860     		str	r0, [r7, #4]
 4143 0008 7B68     		ldr	r3, [r7, #4]
 4144 000a 9B8F     		ldrh	r3, [r3, #60]	@ movhi
 4145 000c 9BB2     		uxth	r3, r3
 4146 000e 1846     		mov	r0, r3
 4147 0010 0C37     		adds	r7, r7, #12
 4148 0012 BD46     		mov	sp, r7
 4149              		@ sp needed
ARM GAS  C:\msys64\tmp\cc82fx43.s 			page 71


 4150 0014 80BC     		pop	{r7}
 4151 0016 7047     		bx	lr
 4153              		.section	.text.TIM_GetCapture4,"ax",%progbits
 4154              		.align	1
 4155              		.global	TIM_GetCapture4
 4156              		.syntax unified
 4157              		.thumb
 4158              		.thumb_func
 4159              		.fpu softvfp
 4161              	TIM_GetCapture4:
 4162              		@ args = 0, pretend = 0, frame = 8
 4163              		@ frame_needed = 1, uses_anonymous_args = 0
 4164              		@ link register save eliminated.
 4165 0000 80B4     		push	{r7}
 4166 0002 83B0     		sub	sp, sp, #12
 4167 0004 00AF     		add	r7, sp, #0
 4168 0006 7860     		str	r0, [r7, #4]
 4169 0008 7B68     		ldr	r3, [r7, #4]
 4170 000a B3F84030 		ldrh	r3, [r3, #64]	@ movhi
 4171 000e 9BB2     		uxth	r3, r3
 4172 0010 1846     		mov	r0, r3
 4173 0012 0C37     		adds	r7, r7, #12
 4174 0014 BD46     		mov	sp, r7
 4175              		@ sp needed
 4176 0016 80BC     		pop	{r7}
 4177 0018 7047     		bx	lr
 4179              		.section	.text.TIM_GetCounter,"ax",%progbits
 4180              		.align	1
 4181              		.global	TIM_GetCounter
 4182              		.syntax unified
 4183              		.thumb
 4184              		.thumb_func
 4185              		.fpu softvfp
 4187              	TIM_GetCounter:
 4188              		@ args = 0, pretend = 0, frame = 8
 4189              		@ frame_needed = 1, uses_anonymous_args = 0
 4190              		@ link register save eliminated.
 4191 0000 80B4     		push	{r7}
 4192 0002 83B0     		sub	sp, sp, #12
 4193 0004 00AF     		add	r7, sp, #0
 4194 0006 7860     		str	r0, [r7, #4]
 4195 0008 7B68     		ldr	r3, [r7, #4]
 4196 000a 9B8C     		ldrh	r3, [r3, #36]	@ movhi
 4197 000c 9BB2     		uxth	r3, r3
 4198 000e 1846     		mov	r0, r3
 4199 0010 0C37     		adds	r7, r7, #12
 4200 0012 BD46     		mov	sp, r7
 4201              		@ sp needed
 4202 0014 80BC     		pop	{r7}
 4203 0016 7047     		bx	lr
 4205              		.section	.text.TIM_GetPrescaler,"ax",%progbits
 4206              		.align	1
 4207              		.global	TIM_GetPrescaler
 4208              		.syntax unified
 4209              		.thumb
 4210              		.thumb_func
 4211              		.fpu softvfp
ARM GAS  C:\msys64\tmp\cc82fx43.s 			page 72


 4213              	TIM_GetPrescaler:
 4214              		@ args = 0, pretend = 0, frame = 8
 4215              		@ frame_needed = 1, uses_anonymous_args = 0
 4216              		@ link register save eliminated.
 4217 0000 80B4     		push	{r7}
 4218 0002 83B0     		sub	sp, sp, #12
 4219 0004 00AF     		add	r7, sp, #0
 4220 0006 7860     		str	r0, [r7, #4]
 4221 0008 7B68     		ldr	r3, [r7, #4]
 4222 000a 1B8D     		ldrh	r3, [r3, #40]	@ movhi
 4223 000c 9BB2     		uxth	r3, r3
 4224 000e 1846     		mov	r0, r3
 4225 0010 0C37     		adds	r7, r7, #12
 4226 0012 BD46     		mov	sp, r7
 4227              		@ sp needed
 4228 0014 80BC     		pop	{r7}
 4229 0016 7047     		bx	lr
 4231              		.section	.text.TIM_GetFlagStatus,"ax",%progbits
 4232              		.align	1
 4233              		.global	TIM_GetFlagStatus
 4234              		.syntax unified
 4235              		.thumb
 4236              		.thumb_func
 4237              		.fpu softvfp
 4239              	TIM_GetFlagStatus:
 4240              		@ args = 0, pretend = 0, frame = 16
 4241              		@ frame_needed = 1, uses_anonymous_args = 0
 4242              		@ link register save eliminated.
 4243 0000 80B4     		push	{r7}
 4244 0002 85B0     		sub	sp, sp, #20
 4245 0004 00AF     		add	r7, sp, #0
 4246 0006 7860     		str	r0, [r7, #4]
 4247 0008 0B46     		mov	r3, r1
 4248 000a 7B80     		strh	r3, [r7, #2]	@ movhi
 4249 000c 0023     		movs	r3, #0
 4250 000e FB73     		strb	r3, [r7, #15]
 4251 0010 7B68     		ldr	r3, [r7, #4]
 4252 0012 1B8A     		ldrh	r3, [r3, #16]	@ movhi
 4253 0014 9AB2     		uxth	r2, r3
 4254 0016 7B88     		ldrh	r3, [r7, #2]	@ movhi
 4255 0018 1340     		ands	r3, r3, r2
 4256 001a 9BB2     		uxth	r3, r3
 4257 001c 002B     		cmp	r3, #0
 4258 001e 02D0     		beq	.L184
 4259 0020 0123     		movs	r3, #1
 4260 0022 FB73     		strb	r3, [r7, #15]
 4261 0024 01E0     		b	.L185
 4262              	.L184:
 4263 0026 0023     		movs	r3, #0
 4264 0028 FB73     		strb	r3, [r7, #15]
 4265              	.L185:
 4266 002a FB7B     		ldrb	r3, [r7, #15]	@ zero_extendqisi2
 4267 002c 1846     		mov	r0, r3
 4268 002e 1437     		adds	r7, r7, #20
 4269 0030 BD46     		mov	sp, r7
 4270              		@ sp needed
 4271 0032 80BC     		pop	{r7}
ARM GAS  C:\msys64\tmp\cc82fx43.s 			page 73


 4272 0034 7047     		bx	lr
 4274              		.section	.text.TIM_ClearFlag,"ax",%progbits
 4275              		.align	1
 4276              		.global	TIM_ClearFlag
 4277              		.syntax unified
 4278              		.thumb
 4279              		.thumb_func
 4280              		.fpu softvfp
 4282              	TIM_ClearFlag:
 4283              		@ args = 0, pretend = 0, frame = 8
 4284              		@ frame_needed = 1, uses_anonymous_args = 0
 4285              		@ link register save eliminated.
 4286 0000 80B4     		push	{r7}
 4287 0002 83B0     		sub	sp, sp, #12
 4288 0004 00AF     		add	r7, sp, #0
 4289 0006 7860     		str	r0, [r7, #4]
 4290 0008 0B46     		mov	r3, r1
 4291 000a 7B80     		strh	r3, [r7, #2]	@ movhi
 4292 000c 7B88     		ldrh	r3, [r7, #2]	@ movhi
 4293 000e DB43     		mvns	r3, r3
 4294 0010 9AB2     		uxth	r2, r3
 4295 0012 7B68     		ldr	r3, [r7, #4]
 4296 0014 1A82     		strh	r2, [r3, #16]	@ movhi
 4297 0016 00BF     		nop
 4298 0018 0C37     		adds	r7, r7, #12
 4299 001a BD46     		mov	sp, r7
 4300              		@ sp needed
 4301 001c 80BC     		pop	{r7}
 4302 001e 7047     		bx	lr
 4304              		.section	.text.TIM_GetITStatus,"ax",%progbits
 4305              		.align	1
 4306              		.global	TIM_GetITStatus
 4307              		.syntax unified
 4308              		.thumb
 4309              		.thumb_func
 4310              		.fpu softvfp
 4312              	TIM_GetITStatus:
 4313              		@ args = 0, pretend = 0, frame = 16
 4314              		@ frame_needed = 1, uses_anonymous_args = 0
 4315              		@ link register save eliminated.
 4316 0000 80B4     		push	{r7}
 4317 0002 85B0     		sub	sp, sp, #20
 4318 0004 00AF     		add	r7, sp, #0
 4319 0006 7860     		str	r0, [r7, #4]
 4320 0008 0B46     		mov	r3, r1
 4321 000a 7B80     		strh	r3, [r7, #2]	@ movhi
 4322 000c 0023     		movs	r3, #0
 4323 000e FB73     		strb	r3, [r7, #15]
 4324 0010 0023     		movs	r3, #0
 4325 0012 BB81     		strh	r3, [r7, #12]	@ movhi
 4326 0014 0023     		movs	r3, #0
 4327 0016 7B81     		strh	r3, [r7, #10]	@ movhi
 4328 0018 7B68     		ldr	r3, [r7, #4]
 4329 001a 1B8A     		ldrh	r3, [r3, #16]	@ movhi
 4330 001c 9AB2     		uxth	r2, r3
 4331 001e 7B88     		ldrh	r3, [r7, #2]	@ movhi
 4332 0020 1340     		ands	r3, r3, r2
ARM GAS  C:\msys64\tmp\cc82fx43.s 			page 74


 4333 0022 BB81     		strh	r3, [r7, #12]	@ movhi
 4334 0024 7B68     		ldr	r3, [r7, #4]
 4335 0026 9B89     		ldrh	r3, [r3, #12]	@ movhi
 4336 0028 9AB2     		uxth	r2, r3
 4337 002a 7B88     		ldrh	r3, [r7, #2]	@ movhi
 4338 002c 1340     		ands	r3, r3, r2
 4339 002e 7B81     		strh	r3, [r7, #10]	@ movhi
 4340 0030 BB89     		ldrh	r3, [r7, #12]
 4341 0032 002B     		cmp	r3, #0
 4342 0034 05D0     		beq	.L189
 4343 0036 7B89     		ldrh	r3, [r7, #10]
 4344 0038 002B     		cmp	r3, #0
 4345 003a 02D0     		beq	.L189
 4346 003c 0123     		movs	r3, #1
 4347 003e FB73     		strb	r3, [r7, #15]
 4348 0040 01E0     		b	.L190
 4349              	.L189:
 4350 0042 0023     		movs	r3, #0
 4351 0044 FB73     		strb	r3, [r7, #15]
 4352              	.L190:
 4353 0046 FB7B     		ldrb	r3, [r7, #15]	@ zero_extendqisi2
 4354 0048 1846     		mov	r0, r3
 4355 004a 1437     		adds	r7, r7, #20
 4356 004c BD46     		mov	sp, r7
 4357              		@ sp needed
 4358 004e 80BC     		pop	{r7}
 4359 0050 7047     		bx	lr
 4361              		.section	.text.TIM_ClearITPendingBit,"ax",%progbits
 4362              		.align	1
 4363              		.global	TIM_ClearITPendingBit
 4364              		.syntax unified
 4365              		.thumb
 4366              		.thumb_func
 4367              		.fpu softvfp
 4369              	TIM_ClearITPendingBit:
 4370              		@ args = 0, pretend = 0, frame = 8
 4371              		@ frame_needed = 1, uses_anonymous_args = 0
 4372              		@ link register save eliminated.
 4373 0000 80B4     		push	{r7}
 4374 0002 83B0     		sub	sp, sp, #12
 4375 0004 00AF     		add	r7, sp, #0
 4376 0006 7860     		str	r0, [r7, #4]
 4377 0008 0B46     		mov	r3, r1
 4378 000a 7B80     		strh	r3, [r7, #2]	@ movhi
 4379 000c 7B88     		ldrh	r3, [r7, #2]	@ movhi
 4380 000e DB43     		mvns	r3, r3
 4381 0010 9AB2     		uxth	r2, r3
 4382 0012 7B68     		ldr	r3, [r7, #4]
 4383 0014 1A82     		strh	r2, [r3, #16]	@ movhi
 4384 0016 00BF     		nop
 4385 0018 0C37     		adds	r7, r7, #12
 4386 001a BD46     		mov	sp, r7
 4387              		@ sp needed
 4388 001c 80BC     		pop	{r7}
 4389 001e 7047     		bx	lr
 4391              		.section	.text.TI1_Config,"ax",%progbits
 4392              		.align	1
ARM GAS  C:\msys64\tmp\cc82fx43.s 			page 75


 4393              		.syntax unified
 4394              		.thumb
 4395              		.thumb_func
 4396              		.fpu softvfp
 4398              	TI1_Config:
 4399              		@ args = 0, pretend = 0, frame = 24
 4400              		@ frame_needed = 1, uses_anonymous_args = 0
 4401              		@ link register save eliminated.
 4402 0000 80B4     		push	{r7}
 4403 0002 87B0     		sub	sp, sp, #28
 4404 0004 00AF     		add	r7, sp, #0
 4405 0006 F860     		str	r0, [r7, #12]
 4406 0008 0846     		mov	r0, r1
 4407 000a 1146     		mov	r1, r2
 4408 000c 1A46     		mov	r2, r3
 4409 000e 0346     		mov	r3, r0	@ movhi
 4410 0010 7B81     		strh	r3, [r7, #10]	@ movhi
 4411 0012 0B46     		mov	r3, r1	@ movhi
 4412 0014 3B81     		strh	r3, [r7, #8]	@ movhi
 4413 0016 1346     		mov	r3, r2	@ movhi
 4414 0018 FB80     		strh	r3, [r7, #6]	@ movhi
 4415 001a 0023     		movs	r3, #0
 4416 001c BB82     		strh	r3, [r7, #20]	@ movhi
 4417 001e 0023     		movs	r3, #0
 4418 0020 FB82     		strh	r3, [r7, #22]	@ movhi
 4419 0022 FB68     		ldr	r3, [r7, #12]
 4420 0024 1B8C     		ldrh	r3, [r3, #32]	@ movhi
 4421 0026 9BB2     		uxth	r3, r3
 4422 0028 23F00103 		bic	r3, r3, #1
 4423 002c 9AB2     		uxth	r2, r3
 4424 002e FB68     		ldr	r3, [r7, #12]
 4425 0030 1A84     		strh	r2, [r3, #32]	@ movhi
 4426 0032 FB68     		ldr	r3, [r7, #12]
 4427 0034 1B8B     		ldrh	r3, [r3, #24]	@ movhi
 4428 0036 BB82     		strh	r3, [r7, #20]	@ movhi
 4429 0038 FB68     		ldr	r3, [r7, #12]
 4430 003a 1B8C     		ldrh	r3, [r3, #32]	@ movhi
 4431 003c FB82     		strh	r3, [r7, #22]	@ movhi
 4432 003e BB8A     		ldrh	r3, [r7, #20]	@ movhi
 4433 0040 23F0F303 		bic	r3, r3, #243
 4434 0044 BB82     		strh	r3, [r7, #20]	@ movhi
 4435 0046 FB88     		ldrh	r3, [r7, #6]	@ movhi
 4436 0048 1B01     		lsls	r3, r3, #4
 4437 004a 9AB2     		uxth	r2, r3
 4438 004c 3B89     		ldrh	r3, [r7, #8]	@ movhi
 4439 004e 1343     		orrs	r3, r3, r2
 4440 0050 9AB2     		uxth	r2, r3
 4441 0052 BB8A     		ldrh	r3, [r7, #20]	@ movhi
 4442 0054 1343     		orrs	r3, r3, r2
 4443 0056 BB82     		strh	r3, [r7, #20]	@ movhi
 4444 0058 FB68     		ldr	r3, [r7, #12]
 4445 005a 1C4A     		ldr	r2, .L197
 4446 005c 9342     		cmp	r3, r2
 4447 005e 13D0     		beq	.L194
 4448 0060 FB68     		ldr	r3, [r7, #12]
 4449 0062 1B4A     		ldr	r2, .L197+4
 4450 0064 9342     		cmp	r3, r2
ARM GAS  C:\msys64\tmp\cc82fx43.s 			page 76


 4451 0066 0FD0     		beq	.L194
 4452 0068 FB68     		ldr	r3, [r7, #12]
 4453 006a B3F1804F 		cmp	r3, #1073741824
 4454 006e 0BD0     		beq	.L194
 4455 0070 FB68     		ldr	r3, [r7, #12]
 4456 0072 184A     		ldr	r2, .L197+8
 4457 0074 9342     		cmp	r3, r2
 4458 0076 07D0     		beq	.L194
 4459 0078 FB68     		ldr	r3, [r7, #12]
 4460 007a 174A     		ldr	r2, .L197+12
 4461 007c 9342     		cmp	r3, r2
 4462 007e 03D0     		beq	.L194
 4463 0080 FB68     		ldr	r3, [r7, #12]
 4464 0082 164A     		ldr	r2, .L197+16
 4465 0084 9342     		cmp	r3, r2
 4466 0086 0BD1     		bne	.L195
 4467              	.L194:
 4468 0088 FB8A     		ldrh	r3, [r7, #22]	@ movhi
 4469 008a 23F00203 		bic	r3, r3, #2
 4470 008e FB82     		strh	r3, [r7, #22]	@ movhi
 4471 0090 7A89     		ldrh	r2, [r7, #10]	@ movhi
 4472 0092 FB8A     		ldrh	r3, [r7, #22]	@ movhi
 4473 0094 1343     		orrs	r3, r3, r2
 4474 0096 9BB2     		uxth	r3, r3
 4475 0098 43F00103 		orr	r3, r3, #1
 4476 009c FB82     		strh	r3, [r7, #22]	@ movhi
 4477 009e 0AE0     		b	.L196
 4478              	.L195:
 4479 00a0 FB8A     		ldrh	r3, [r7, #22]	@ movhi
 4480 00a2 23F00A03 		bic	r3, r3, #10
 4481 00a6 FB82     		strh	r3, [r7, #22]	@ movhi
 4482 00a8 7A89     		ldrh	r2, [r7, #10]	@ movhi
 4483 00aa FB8A     		ldrh	r3, [r7, #22]	@ movhi
 4484 00ac 1343     		orrs	r3, r3, r2
 4485 00ae 9BB2     		uxth	r3, r3
 4486 00b0 43F00103 		orr	r3, r3, #1
 4487 00b4 FB82     		strh	r3, [r7, #22]	@ movhi
 4488              	.L196:
 4489 00b6 FB68     		ldr	r3, [r7, #12]
 4490 00b8 BA8A     		ldrh	r2, [r7, #20]	@ movhi
 4491 00ba 1A83     		strh	r2, [r3, #24]	@ movhi
 4492 00bc FB68     		ldr	r3, [r7, #12]
 4493 00be FA8A     		ldrh	r2, [r7, #22]	@ movhi
 4494 00c0 1A84     		strh	r2, [r3, #32]	@ movhi
 4495 00c2 00BF     		nop
 4496 00c4 1C37     		adds	r7, r7, #28
 4497 00c6 BD46     		mov	sp, r7
 4498              		@ sp needed
 4499 00c8 80BC     		pop	{r7}
 4500 00ca 7047     		bx	lr
 4501              	.L198:
 4502              		.align	2
 4503              	.L197:
 4504 00cc 002C0140 		.word	1073818624
 4505 00d0 00340140 		.word	1073820672
 4506 00d4 00040040 		.word	1073742848
 4507 00d8 00080040 		.word	1073743872
ARM GAS  C:\msys64\tmp\cc82fx43.s 			page 77


 4508 00dc 000C0040 		.word	1073744896
 4510              		.section	.text.TI2_Config,"ax",%progbits
 4511              		.align	1
 4512              		.syntax unified
 4513              		.thumb
 4514              		.thumb_func
 4515              		.fpu softvfp
 4517              	TI2_Config:
 4518              		@ args = 0, pretend = 0, frame = 24
 4519              		@ frame_needed = 1, uses_anonymous_args = 0
 4520              		@ link register save eliminated.
 4521 0000 80B4     		push	{r7}
 4522 0002 87B0     		sub	sp, sp, #28
 4523 0004 00AF     		add	r7, sp, #0
 4524 0006 F860     		str	r0, [r7, #12]
 4525 0008 0846     		mov	r0, r1
 4526 000a 1146     		mov	r1, r2
 4527 000c 1A46     		mov	r2, r3
 4528 000e 0346     		mov	r3, r0	@ movhi
 4529 0010 7B81     		strh	r3, [r7, #10]	@ movhi
 4530 0012 0B46     		mov	r3, r1	@ movhi
 4531 0014 3B81     		strh	r3, [r7, #8]	@ movhi
 4532 0016 1346     		mov	r3, r2	@ movhi
 4533 0018 FB80     		strh	r3, [r7, #6]	@ movhi
 4534 001a 0023     		movs	r3, #0
 4535 001c BB82     		strh	r3, [r7, #20]	@ movhi
 4536 001e 0023     		movs	r3, #0
 4537 0020 FB82     		strh	r3, [r7, #22]	@ movhi
 4538 0022 0023     		movs	r3, #0
 4539 0024 7B82     		strh	r3, [r7, #18]	@ movhi
 4540 0026 FB68     		ldr	r3, [r7, #12]
 4541 0028 1B8C     		ldrh	r3, [r3, #32]	@ movhi
 4542 002a 9BB2     		uxth	r3, r3
 4543 002c 23F01003 		bic	r3, r3, #16
 4544 0030 9AB2     		uxth	r2, r3
 4545 0032 FB68     		ldr	r3, [r7, #12]
 4546 0034 1A84     		strh	r2, [r3, #32]	@ movhi
 4547 0036 FB68     		ldr	r3, [r7, #12]
 4548 0038 1B8B     		ldrh	r3, [r3, #24]	@ movhi
 4549 003a BB82     		strh	r3, [r7, #20]	@ movhi
 4550 003c FB68     		ldr	r3, [r7, #12]
 4551 003e 1B8C     		ldrh	r3, [r3, #32]	@ movhi
 4552 0040 FB82     		strh	r3, [r7, #22]	@ movhi
 4553 0042 7B89     		ldrh	r3, [r7, #10]	@ movhi
 4554 0044 1B01     		lsls	r3, r3, #4
 4555 0046 7B82     		strh	r3, [r7, #18]	@ movhi
 4556 0048 BB8A     		ldrh	r3, [r7, #20]	@ movhi
 4557 004a 23F44073 		bic	r3, r3, #768
 4558 004e 1B05     		lsls	r3, r3, #20
 4559 0050 1B0D     		lsrs	r3, r3, #20
 4560 0052 BB82     		strh	r3, [r7, #20]	@ movhi
 4561 0054 FB88     		ldrh	r3, [r7, #6]	@ movhi
 4562 0056 1B03     		lsls	r3, r3, #12
 4563 0058 9AB2     		uxth	r2, r3
 4564 005a BB8A     		ldrh	r3, [r7, #20]	@ movhi
 4565 005c 1343     		orrs	r3, r3, r2
 4566 005e BB82     		strh	r3, [r7, #20]	@ movhi
ARM GAS  C:\msys64\tmp\cc82fx43.s 			page 78


 4567 0060 3B89     		ldrh	r3, [r7, #8]	@ movhi
 4568 0062 1B02     		lsls	r3, r3, #8
 4569 0064 9AB2     		uxth	r2, r3
 4570 0066 BB8A     		ldrh	r3, [r7, #20]	@ movhi
 4571 0068 1343     		orrs	r3, r3, r2
 4572 006a BB82     		strh	r3, [r7, #20]	@ movhi
 4573 006c FB68     		ldr	r3, [r7, #12]
 4574 006e 1C4A     		ldr	r2, .L203
 4575 0070 9342     		cmp	r3, r2
 4576 0072 13D0     		beq	.L200
 4577 0074 FB68     		ldr	r3, [r7, #12]
 4578 0076 1B4A     		ldr	r2, .L203+4
 4579 0078 9342     		cmp	r3, r2
 4580 007a 0FD0     		beq	.L200
 4581 007c FB68     		ldr	r3, [r7, #12]
 4582 007e B3F1804F 		cmp	r3, #1073741824
 4583 0082 0BD0     		beq	.L200
 4584 0084 FB68     		ldr	r3, [r7, #12]
 4585 0086 184A     		ldr	r2, .L203+8
 4586 0088 9342     		cmp	r3, r2
 4587 008a 07D0     		beq	.L200
 4588 008c FB68     		ldr	r3, [r7, #12]
 4589 008e 174A     		ldr	r2, .L203+12
 4590 0090 9342     		cmp	r3, r2
 4591 0092 03D0     		beq	.L200
 4592 0094 FB68     		ldr	r3, [r7, #12]
 4593 0096 164A     		ldr	r2, .L203+16
 4594 0098 9342     		cmp	r3, r2
 4595 009a 0BD1     		bne	.L201
 4596              	.L200:
 4597 009c FB8A     		ldrh	r3, [r7, #22]	@ movhi
 4598 009e 23F02003 		bic	r3, r3, #32
 4599 00a2 FB82     		strh	r3, [r7, #22]	@ movhi
 4600 00a4 7A8A     		ldrh	r2, [r7, #18]	@ movhi
 4601 00a6 FB8A     		ldrh	r3, [r7, #22]	@ movhi
 4602 00a8 1343     		orrs	r3, r3, r2
 4603 00aa 9BB2     		uxth	r3, r3
 4604 00ac 43F01003 		orr	r3, r3, #16
 4605 00b0 FB82     		strh	r3, [r7, #22]	@ movhi
 4606 00b2 0AE0     		b	.L202
 4607              	.L201:
 4608 00b4 FB8A     		ldrh	r3, [r7, #22]	@ movhi
 4609 00b6 23F0A003 		bic	r3, r3, #160
 4610 00ba FB82     		strh	r3, [r7, #22]	@ movhi
 4611 00bc 7A89     		ldrh	r2, [r7, #10]	@ movhi
 4612 00be FB8A     		ldrh	r3, [r7, #22]	@ movhi
 4613 00c0 1343     		orrs	r3, r3, r2
 4614 00c2 9BB2     		uxth	r3, r3
 4615 00c4 43F01003 		orr	r3, r3, #16
 4616 00c8 FB82     		strh	r3, [r7, #22]	@ movhi
 4617              	.L202:
 4618 00ca FB68     		ldr	r3, [r7, #12]
 4619 00cc BA8A     		ldrh	r2, [r7, #20]	@ movhi
 4620 00ce 1A83     		strh	r2, [r3, #24]	@ movhi
 4621 00d0 FB68     		ldr	r3, [r7, #12]
 4622 00d2 FA8A     		ldrh	r2, [r7, #22]	@ movhi
 4623 00d4 1A84     		strh	r2, [r3, #32]	@ movhi
ARM GAS  C:\msys64\tmp\cc82fx43.s 			page 79


 4624 00d6 00BF     		nop
 4625 00d8 1C37     		adds	r7, r7, #28
 4626 00da BD46     		mov	sp, r7
 4627              		@ sp needed
 4628 00dc 80BC     		pop	{r7}
 4629 00de 7047     		bx	lr
 4630              	.L204:
 4631              		.align	2
 4632              	.L203:
 4633 00e0 002C0140 		.word	1073818624
 4634 00e4 00340140 		.word	1073820672
 4635 00e8 00040040 		.word	1073742848
 4636 00ec 00080040 		.word	1073743872
 4637 00f0 000C0040 		.word	1073744896
 4639              		.section	.text.TI3_Config,"ax",%progbits
 4640              		.align	1
 4641              		.syntax unified
 4642              		.thumb
 4643              		.thumb_func
 4644              		.fpu softvfp
 4646              	TI3_Config:
 4647              		@ args = 0, pretend = 0, frame = 24
 4648              		@ frame_needed = 1, uses_anonymous_args = 0
 4649              		@ link register save eliminated.
 4650 0000 80B4     		push	{r7}
 4651 0002 87B0     		sub	sp, sp, #28
 4652 0004 00AF     		add	r7, sp, #0
 4653 0006 F860     		str	r0, [r7, #12]
 4654 0008 0846     		mov	r0, r1
 4655 000a 1146     		mov	r1, r2
 4656 000c 1A46     		mov	r2, r3
 4657 000e 0346     		mov	r3, r0	@ movhi
 4658 0010 7B81     		strh	r3, [r7, #10]	@ movhi
 4659 0012 0B46     		mov	r3, r1	@ movhi
 4660 0014 3B81     		strh	r3, [r7, #8]	@ movhi
 4661 0016 1346     		mov	r3, r2	@ movhi
 4662 0018 FB80     		strh	r3, [r7, #6]	@ movhi
 4663 001a 0023     		movs	r3, #0
 4664 001c BB82     		strh	r3, [r7, #20]	@ movhi
 4665 001e 0023     		movs	r3, #0
 4666 0020 FB82     		strh	r3, [r7, #22]	@ movhi
 4667 0022 0023     		movs	r3, #0
 4668 0024 7B82     		strh	r3, [r7, #18]	@ movhi
 4669 0026 FB68     		ldr	r3, [r7, #12]
 4670 0028 1B8C     		ldrh	r3, [r3, #32]	@ movhi
 4671 002a 9BB2     		uxth	r3, r3
 4672 002c 23F48073 		bic	r3, r3, #256
 4673 0030 9AB2     		uxth	r2, r3
 4674 0032 FB68     		ldr	r3, [r7, #12]
 4675 0034 1A84     		strh	r2, [r3, #32]	@ movhi
 4676 0036 FB68     		ldr	r3, [r7, #12]
 4677 0038 9B8B     		ldrh	r3, [r3, #28]	@ movhi
 4678 003a BB82     		strh	r3, [r7, #20]	@ movhi
 4679 003c FB68     		ldr	r3, [r7, #12]
 4680 003e 1B8C     		ldrh	r3, [r3, #32]	@ movhi
 4681 0040 FB82     		strh	r3, [r7, #22]	@ movhi
 4682 0042 7B89     		ldrh	r3, [r7, #10]	@ movhi
ARM GAS  C:\msys64\tmp\cc82fx43.s 			page 80


 4683 0044 1B02     		lsls	r3, r3, #8
 4684 0046 7B82     		strh	r3, [r7, #18]	@ movhi
 4685 0048 BB8A     		ldrh	r3, [r7, #20]	@ movhi
 4686 004a 23F0F303 		bic	r3, r3, #243
 4687 004e BB82     		strh	r3, [r7, #20]	@ movhi
 4688 0050 FB88     		ldrh	r3, [r7, #6]	@ movhi
 4689 0052 1B01     		lsls	r3, r3, #4
 4690 0054 9AB2     		uxth	r2, r3
 4691 0056 3B89     		ldrh	r3, [r7, #8]	@ movhi
 4692 0058 1343     		orrs	r3, r3, r2
 4693 005a 9AB2     		uxth	r2, r3
 4694 005c BB8A     		ldrh	r3, [r7, #20]	@ movhi
 4695 005e 1343     		orrs	r3, r3, r2
 4696 0060 BB82     		strh	r3, [r7, #20]	@ movhi
 4697 0062 FB68     		ldr	r3, [r7, #12]
 4698 0064 1C4A     		ldr	r2, .L209
 4699 0066 9342     		cmp	r3, r2
 4700 0068 13D0     		beq	.L206
 4701 006a FB68     		ldr	r3, [r7, #12]
 4702 006c 1B4A     		ldr	r2, .L209+4
 4703 006e 9342     		cmp	r3, r2
 4704 0070 0FD0     		beq	.L206
 4705 0072 FB68     		ldr	r3, [r7, #12]
 4706 0074 B3F1804F 		cmp	r3, #1073741824
 4707 0078 0BD0     		beq	.L206
 4708 007a FB68     		ldr	r3, [r7, #12]
 4709 007c 184A     		ldr	r2, .L209+8
 4710 007e 9342     		cmp	r3, r2
 4711 0080 07D0     		beq	.L206
 4712 0082 FB68     		ldr	r3, [r7, #12]
 4713 0084 174A     		ldr	r2, .L209+12
 4714 0086 9342     		cmp	r3, r2
 4715 0088 03D0     		beq	.L206
 4716 008a FB68     		ldr	r3, [r7, #12]
 4717 008c 164A     		ldr	r2, .L209+16
 4718 008e 9342     		cmp	r3, r2
 4719 0090 0BD1     		bne	.L207
 4720              	.L206:
 4721 0092 FB8A     		ldrh	r3, [r7, #22]	@ movhi
 4722 0094 23F40073 		bic	r3, r3, #512
 4723 0098 FB82     		strh	r3, [r7, #22]	@ movhi
 4724 009a 7A8A     		ldrh	r2, [r7, #18]	@ movhi
 4725 009c FB8A     		ldrh	r3, [r7, #22]	@ movhi
 4726 009e 1343     		orrs	r3, r3, r2
 4727 00a0 9BB2     		uxth	r3, r3
 4728 00a2 43F48073 		orr	r3, r3, #256
 4729 00a6 FB82     		strh	r3, [r7, #22]	@ movhi
 4730 00a8 0AE0     		b	.L208
 4731              	.L207:
 4732 00aa FB8A     		ldrh	r3, [r7, #22]	@ movhi
 4733 00ac 23F42063 		bic	r3, r3, #2560
 4734 00b0 FB82     		strh	r3, [r7, #22]	@ movhi
 4735 00b2 7A89     		ldrh	r2, [r7, #10]	@ movhi
 4736 00b4 FB8A     		ldrh	r3, [r7, #22]	@ movhi
 4737 00b6 1343     		orrs	r3, r3, r2
 4738 00b8 9BB2     		uxth	r3, r3
 4739 00ba 43F48073 		orr	r3, r3, #256
ARM GAS  C:\msys64\tmp\cc82fx43.s 			page 81


 4740 00be FB82     		strh	r3, [r7, #22]	@ movhi
 4741              	.L208:
 4742 00c0 FB68     		ldr	r3, [r7, #12]
 4743 00c2 BA8A     		ldrh	r2, [r7, #20]	@ movhi
 4744 00c4 9A83     		strh	r2, [r3, #28]	@ movhi
 4745 00c6 FB68     		ldr	r3, [r7, #12]
 4746 00c8 FA8A     		ldrh	r2, [r7, #22]	@ movhi
 4747 00ca 1A84     		strh	r2, [r3, #32]	@ movhi
 4748 00cc 00BF     		nop
 4749 00ce 1C37     		adds	r7, r7, #28
 4750 00d0 BD46     		mov	sp, r7
 4751              		@ sp needed
 4752 00d2 80BC     		pop	{r7}
 4753 00d4 7047     		bx	lr
 4754              	.L210:
 4755 00d6 00BF     		.align	2
 4756              	.L209:
 4757 00d8 002C0140 		.word	1073818624
 4758 00dc 00340140 		.word	1073820672
 4759 00e0 00040040 		.word	1073742848
 4760 00e4 00080040 		.word	1073743872
 4761 00e8 000C0040 		.word	1073744896
 4763              		.section	.text.TI4_Config,"ax",%progbits
 4764              		.align	1
 4765              		.syntax unified
 4766              		.thumb
 4767              		.thumb_func
 4768              		.fpu softvfp
 4770              	TI4_Config:
 4771              		@ args = 0, pretend = 0, frame = 24
 4772              		@ frame_needed = 1, uses_anonymous_args = 0
 4773              		@ link register save eliminated.
 4774 0000 80B4     		push	{r7}
 4775 0002 87B0     		sub	sp, sp, #28
 4776 0004 00AF     		add	r7, sp, #0
 4777 0006 F860     		str	r0, [r7, #12]
 4778 0008 0846     		mov	r0, r1
 4779 000a 1146     		mov	r1, r2
 4780 000c 1A46     		mov	r2, r3
 4781 000e 0346     		mov	r3, r0	@ movhi
 4782 0010 7B81     		strh	r3, [r7, #10]	@ movhi
 4783 0012 0B46     		mov	r3, r1	@ movhi
 4784 0014 3B81     		strh	r3, [r7, #8]	@ movhi
 4785 0016 1346     		mov	r3, r2	@ movhi
 4786 0018 FB80     		strh	r3, [r7, #6]	@ movhi
 4787 001a 0023     		movs	r3, #0
 4788 001c BB82     		strh	r3, [r7, #20]	@ movhi
 4789 001e 0023     		movs	r3, #0
 4790 0020 FB82     		strh	r3, [r7, #22]	@ movhi
 4791 0022 0023     		movs	r3, #0
 4792 0024 7B82     		strh	r3, [r7, #18]	@ movhi
 4793 0026 FB68     		ldr	r3, [r7, #12]
 4794 0028 1B8C     		ldrh	r3, [r3, #32]	@ movhi
 4795 002a 9BB2     		uxth	r3, r3
 4796 002c 23F48053 		bic	r3, r3, #4096
 4797 0030 9AB2     		uxth	r2, r3
 4798 0032 FB68     		ldr	r3, [r7, #12]
ARM GAS  C:\msys64\tmp\cc82fx43.s 			page 82


 4799 0034 1A84     		strh	r2, [r3, #32]	@ movhi
 4800 0036 FB68     		ldr	r3, [r7, #12]
 4801 0038 9B8B     		ldrh	r3, [r3, #28]	@ movhi
 4802 003a BB82     		strh	r3, [r7, #20]	@ movhi
 4803 003c FB68     		ldr	r3, [r7, #12]
 4804 003e 1B8C     		ldrh	r3, [r3, #32]	@ movhi
 4805 0040 FB82     		strh	r3, [r7, #22]	@ movhi
 4806 0042 7B89     		ldrh	r3, [r7, #10]	@ movhi
 4807 0044 1B03     		lsls	r3, r3, #12
 4808 0046 7B82     		strh	r3, [r7, #18]	@ movhi
 4809 0048 BB8A     		ldrh	r3, [r7, #20]	@ movhi
 4810 004a 23F44073 		bic	r3, r3, #768
 4811 004e 1B05     		lsls	r3, r3, #20
 4812 0050 1B0D     		lsrs	r3, r3, #20
 4813 0052 BB82     		strh	r3, [r7, #20]	@ movhi
 4814 0054 3B89     		ldrh	r3, [r7, #8]	@ movhi
 4815 0056 1B02     		lsls	r3, r3, #8
 4816 0058 9AB2     		uxth	r2, r3
 4817 005a BB8A     		ldrh	r3, [r7, #20]	@ movhi
 4818 005c 1343     		orrs	r3, r3, r2
 4819 005e BB82     		strh	r3, [r7, #20]	@ movhi
 4820 0060 FB88     		ldrh	r3, [r7, #6]	@ movhi
 4821 0062 1B03     		lsls	r3, r3, #12
 4822 0064 9AB2     		uxth	r2, r3
 4823 0066 BB8A     		ldrh	r3, [r7, #20]	@ movhi
 4824 0068 1343     		orrs	r3, r3, r2
 4825 006a BB82     		strh	r3, [r7, #20]	@ movhi
 4826 006c FB68     		ldr	r3, [r7, #12]
 4827 006e 1D4A     		ldr	r2, .L215
 4828 0070 9342     		cmp	r3, r2
 4829 0072 13D0     		beq	.L212
 4830 0074 FB68     		ldr	r3, [r7, #12]
 4831 0076 1C4A     		ldr	r2, .L215+4
 4832 0078 9342     		cmp	r3, r2
 4833 007a 0FD0     		beq	.L212
 4834 007c FB68     		ldr	r3, [r7, #12]
 4835 007e B3F1804F 		cmp	r3, #1073741824
 4836 0082 0BD0     		beq	.L212
 4837 0084 FB68     		ldr	r3, [r7, #12]
 4838 0086 194A     		ldr	r2, .L215+8
 4839 0088 9342     		cmp	r3, r2
 4840 008a 07D0     		beq	.L212
 4841 008c FB68     		ldr	r3, [r7, #12]
 4842 008e 184A     		ldr	r2, .L215+12
 4843 0090 9342     		cmp	r3, r2
 4844 0092 03D0     		beq	.L212
 4845 0094 FB68     		ldr	r3, [r7, #12]
 4846 0096 174A     		ldr	r2, .L215+16
 4847 0098 9342     		cmp	r3, r2
 4848 009a 0BD1     		bne	.L213
 4849              	.L212:
 4850 009c FB8A     		ldrh	r3, [r7, #22]	@ movhi
 4851 009e 23F40053 		bic	r3, r3, #8192
 4852 00a2 FB82     		strh	r3, [r7, #22]	@ movhi
 4853 00a4 7A8A     		ldrh	r2, [r7, #18]	@ movhi
 4854 00a6 FB8A     		ldrh	r3, [r7, #22]	@ movhi
 4855 00a8 1343     		orrs	r3, r3, r2
ARM GAS  C:\msys64\tmp\cc82fx43.s 			page 83


 4856 00aa 9BB2     		uxth	r3, r3
 4857 00ac 43F48053 		orr	r3, r3, #4096
 4858 00b0 FB82     		strh	r3, [r7, #22]	@ movhi
 4859 00b2 0CE0     		b	.L214
 4860              	.L213:
 4861 00b4 FB8A     		ldrh	r3, [r7, #22]	@ movhi
 4862 00b6 23F40073 		bic	r3, r3, #512
 4863 00ba 5B04     		lsls	r3, r3, #17
 4864 00bc 5B0C     		lsrs	r3, r3, #17
 4865 00be FB82     		strh	r3, [r7, #22]	@ movhi
 4866 00c0 7A89     		ldrh	r2, [r7, #10]	@ movhi
 4867 00c2 FB8A     		ldrh	r3, [r7, #22]	@ movhi
 4868 00c4 1343     		orrs	r3, r3, r2
 4869 00c6 9BB2     		uxth	r3, r3
 4870 00c8 43F48053 		orr	r3, r3, #4096
 4871 00cc FB82     		strh	r3, [r7, #22]	@ movhi
 4872              	.L214:
 4873 00ce FB68     		ldr	r3, [r7, #12]
 4874 00d0 BA8A     		ldrh	r2, [r7, #20]	@ movhi
 4875 00d2 9A83     		strh	r2, [r3, #28]	@ movhi
 4876 00d4 FB68     		ldr	r3, [r7, #12]
 4877 00d6 FA8A     		ldrh	r2, [r7, #22]	@ movhi
 4878 00d8 1A84     		strh	r2, [r3, #32]	@ movhi
 4879 00da 00BF     		nop
 4880 00dc 1C37     		adds	r7, r7, #28
 4881 00de BD46     		mov	sp, r7
 4882              		@ sp needed
 4883 00e0 80BC     		pop	{r7}
 4884 00e2 7047     		bx	lr
 4885              	.L216:
 4886              		.align	2
 4887              	.L215:
 4888 00e4 002C0140 		.word	1073818624
 4889 00e8 00340140 		.word	1073820672
 4890 00ec 00040040 		.word	1073742848
 4891 00f0 00080040 		.word	1073743872
 4892 00f4 000C0040 		.word	1073744896
 4894              		.ident	"GCC: (GNU) 10.1.0"
ARM GAS  C:\msys64\tmp\cc82fx43.s 			page 84

